GAS LISTING /tmp/ccKKknS9.s 			page 1


   1              		.file	"idle.cpp"
   2              		.option pic
   3              		.option norelax
   4              		.text
   5              	.Ltext0:
   6              		.align	2
   7              		.globl	_Z12idleFunctionv
   9              	_Z12idleFunctionv:
  10              	.LFB1:
  11              		.file 1 "src/idle.cpp"
   1:src/idle.cpp  **** //
   2:src/idle.cpp  **** // Created by os on 6/23/22.
   3:src/idle.cpp  **** //
   4:src/idle.cpp  **** #include "../h/idle.hpp"
   5:src/idle.cpp  **** #include "../h/Scheduler.hpp"
   6:src/idle.cpp  **** #include "../h/syscall_c.hpp"
   7:src/idle.cpp  **** #include "../test/printing.hpp"
   8:src/idle.cpp  **** #include "../h/KernelBuffer.hpp"
   9:src/idle.cpp  **** 
  10:src/idle.cpp  **** void idleFunction() {
  12              		.loc 1 10 21
  13              		.cfi_startproc
  14 0000 130101FF 		addi	sp,sp,-16
  15              		.cfi_def_cfa_offset 16
  16 0004 23341100 		sd	ra,8(sp)
  17 0008 23308100 		sd	s0,0(sp)
  18              		.cfi_offset 1, -8
  19              		.cfi_offset 8, -16
  20 000c 13040101 		addi	s0,sp,16
  21              		.cfi_def_cfa 8, 0
  11:src/idle.cpp  ****     KernelThread::popSppSpie();
  22              		.loc 1 11 5
  23              		.loc 1 11 29 is_stmt 0
  24 0010 97000000 		call	_ZN12KernelThread10popSppSpieEv@plt
  24      E7800000 
  25              	.LVL0:
  26 0018 6F00C000 		j	.L2
  27              	.L5:
  12:src/idle.cpp  ****     while(true){
  13:src/idle.cpp  ****         if(!Scheduler::empty()){
  14:src/idle.cpp  ****             thread_dispatch();
  28              		.loc 1 14 13 is_stmt 1
  29              		.loc 1 14 28 is_stmt 0
  30 001c 97000000 		call	_Z15thread_dispatchv@plt
  30      E7800000 
  31              	.LVL1:
  32              	.L2:
  12:src/idle.cpp  ****     while(true){
  33              		.loc 1 12 5 is_stmt 1
  13:src/idle.cpp  ****             thread_dispatch();
  34              		.loc 1 13 9
  13:src/idle.cpp  ****             thread_dispatch();
  35              		.loc 1 13 29 is_stmt 0
  36 0024 97000000 		call	_ZN9Scheduler5emptyEv@plt
  36      E7800000 
  37              	.LVL2:
  13:src/idle.cpp  ****             thread_dispatch();
GAS LISTING /tmp/ccKKknS9.s 			page 2


  38              		.loc 1 13 9
  39 002c E31C05FE 		bnez	a0,.L2
  40 0030 6FF0DFFE 		j	.L5
  41              		.cfi_endproc
  42              	.LFE1:
  44              		.align	2
  45              		.globl	_Z11putFunctionv
  47              	_Z11putFunctionv:
  48              	.LFB2:
  15:src/idle.cpp  ****         }
  16:src/idle.cpp  ****     }
  17:src/idle.cpp  **** }
  18:src/idle.cpp  **** 
  19:src/idle.cpp  **** void putFunction() {
  49              		.loc 1 19 20 is_stmt 1
  50              		.cfi_startproc
  51 0034 130101FE 		addi	sp,sp,-32
  52              		.cfi_def_cfa_offset 32
  53 0038 233C1100 		sd	ra,24(sp)
  54 003c 23388100 		sd	s0,16(sp)
  55 0040 23349100 		sd	s1,8(sp)
  56 0044 23302101 		sd	s2,0(sp)
  57              		.cfi_offset 1, -8
  58              		.cfi_offset 8, -16
  59              		.cfi_offset 9, -24
  60              		.cfi_offset 18, -32
  61 0048 13040102 		addi	s0,sp,32
  62              		.cfi_def_cfa 8, 0
  20:src/idle.cpp  ****     changeToPrivilegedMode();
  63              		.loc 1 20 5
  64              		.loc 1 20 27 is_stmt 0
  65 004c 97000000 		call	_Z22changeToPrivilegedModev@plt
  65      E7800000 
  66              	.LVL3:
  21:src/idle.cpp  ****     __asm__ volatile ("csrc sstatus, 0x2");
  67              		.loc 1 21 5 is_stmt 1
  68              		.loc 1 21 43 is_stmt 0
  69              	#APP
  70              	# 21 "src/idle.cpp" 1
  22              	    while(true) {
  71              		csrc sstatus, 0x2
  72              	# 0 "" 2
  73              	#NO_APP
  74 0058 6F004001 		j	.L9
  75              	.LVL4:
  76              	.L7:
  77              	.LBB2:
  23:src/idle.cpp  ****         uint8 *tx = (uint8 *) CONSOLE_TX_DATA;
  24:src/idle.cpp  ****         uint8 *st = (uint8 *) CONSOLE_STATUS;
  25:src/idle.cpp  ****         while(((*st) & CONSOLE_TX_STATUS_BIT) && KernelBuffer::izlaz->getCnt() >0) {
  26:src/idle.cpp  ****             tx = (uint8 *) CONSOLE_TX_DATA;
  27:src/idle.cpp  ****             (*tx) = KernelBuffer::izlaz->get();
  28:src/idle.cpp  ****         }
  29:src/idle.cpp  ****         __asm__ volatile ("csrs sstatus, 0x2");
  78              		.loc 1 29 9 is_stmt 1 discriminator 4
  79              		.loc 1 29 47 is_stmt 0 discriminator 4
  80              	#APP
GAS LISTING /tmp/ccKKknS9.s 			page 3


  81              	# 29 "src/idle.cpp" 1
  30              	        thread_dispatch();
  82              		csrs sstatus, 0x2
  83              	# 0 "" 2
  84              		.loc 1 30 9 is_stmt 1 discriminator 4
  85              		.loc 1 30 24 is_stmt 0 discriminator 4
  86              	#NO_APP
  87 0060 97000000 		call	_Z15thread_dispatchv@plt
  87      E7800000 
  88              	.LVL5:
  31:src/idle.cpp  ****         __asm__ volatile ("csrc sstatus, 0x2");
  89              		.loc 1 31 9 is_stmt 1 discriminator 4
  90              		.loc 1 31 47 is_stmt 0 discriminator 4
  91              	#APP
  92              	# 31 "src/idle.cpp" 1
  32              	    }
  93              		csrc sstatus, 0x2
  94              	# 0 "" 2
  95              	#NO_APP
  96              	.LBE2:
  22:src/idle.cpp  ****         uint8 *tx = (uint8 *) CONSOLE_TX_DATA;
  97              		.loc 1 22 5 is_stmt 1 discriminator 4
  98              	.LVL6:
  99              	.L9:
  22:src/idle.cpp  ****         uint8 *tx = (uint8 *) CONSOLE_TX_DATA;
 100              		.loc 1 22 5
 101              	.LBB3:
  23:src/idle.cpp  ****         uint8 *tx = (uint8 *) CONSOLE_TX_DATA;
 102              		.loc 1 23 9
  23:src/idle.cpp  ****         uint8 *tx = (uint8 *) CONSOLE_TX_DATA;
 103              		.loc 1 23 16 is_stmt 0
 104 006c 97070000 		la	a5,CONSOLE_TX_DATA
 104      83B70700 
 105 0074 03B90700 		ld	s2,0(a5)
 106              	.LVL7:
  24:src/idle.cpp  ****         while(((*st) & CONSOLE_TX_STATUS_BIT) && KernelBuffer::izlaz->getCnt() >0) {
 107              		.loc 1 24 9 is_stmt 1
  24:src/idle.cpp  ****         while(((*st) & CONSOLE_TX_STATUS_BIT) && KernelBuffer::izlaz->getCnt() >0) {
 108              		.loc 1 24 16 is_stmt 0
 109 0078 97070000 		la	a5,CONSOLE_STATUS
 109      83B70700 
 110 0080 83B40700 		ld	s1,0(a5)
 111              	.LVL8:
 112              	.L8:
  25:src/idle.cpp  ****             tx = (uint8 *) CONSOLE_TX_DATA;
 113              		.loc 1 25 9 is_stmt 1
  25:src/idle.cpp  ****             tx = (uint8 *) CONSOLE_TX_DATA;
 114              		.loc 1 25 47
  25:src/idle.cpp  ****             tx = (uint8 *) CONSOLE_TX_DATA;
 115              		.loc 1 25 17 is_stmt 0
 116 0084 83C70400 		lbu	a5,0(s1)
  25:src/idle.cpp  ****             tx = (uint8 *) CONSOLE_TX_DATA;
 117              		.loc 1 25 47
 118 0088 93F70702 		andi	a5,a5,32
 119 008c E38807FC 		beqz	a5,.L7
  25:src/idle.cpp  ****             tx = (uint8 *) CONSOLE_TX_DATA;
 120              		.loc 1 25 77 discriminator 1
GAS LISTING /tmp/ccKKknS9.s 			page 4


 121 0090 97070000 		la	a5,_ZN12KernelBuffer5izlazE
 121      83B70700 
 122 0098 03B50700 		ld	a0,0(a5)
 123 009c 97000000 		call	_ZN12KernelBuffer6getCntEv@plt
 123      E7800000 
 124              	.LVL9:
  25:src/idle.cpp  ****             tx = (uint8 *) CONSOLE_TX_DATA;
 125              		.loc 1 25 47 discriminator 1
 126 00a4 E35CA0FA 		blez	a0,.L7
  26:src/idle.cpp  ****             (*tx) = KernelBuffer::izlaz->get();
 127              		.loc 1 26 13 is_stmt 1
  27:src/idle.cpp  ****         }
 128              		.loc 1 27 13
  27:src/idle.cpp  ****         }
 129              		.loc 1 27 45 is_stmt 0
 130 00a8 97070000 		la	a5,_ZN12KernelBuffer5izlazE
 130      83B70700 
 131 00b0 03B50700 		ld	a0,0(a5)
 132 00b4 97000000 		call	_ZN12KernelBuffer3getEv@plt
 132      E7800000 
 133              	.LVL10:
  27:src/idle.cpp  ****         }
 134              		.loc 1 27 19
 135 00bc 2300A900 		sb	a0,0(s2)
  25:src/idle.cpp  ****             tx = (uint8 *) CONSOLE_TX_DATA;
 136              		.loc 1 25 9
 137 00c0 6FF05FFC 		j	.L8
 138              	.LBE3:
 139              		.cfi_endproc
 140              	.LFE2:
 142              	.Letext0:
 143              		.file 2 "src/../h/../h/../lib/hw.h"
 144              		.file 3 "src/../h/Scheduler.hpp"
 145              		.file 4 "src/../h/KernelThread.hpp"
 146              		.file 5 "src/../h/KernelSemaphore.hpp"
 147              		.file 6 "src/../h/KernelBuffer.hpp"
 148              		.file 7 "src/../h/syscall_c.hpp"
GAS LISTING /tmp/ccKKknS9.s 			page 5

