GAS LISTING /tmp/cc7hPsnV.s 			page 1


   1              		.file	"KernelSemaphore.cpp"
   2              		.option pic
   3              		.option norelax
   4              		.text
   5              	.Ltext0:
   6              		.align	2
   7              		.globl	_ZN15KernelSemaphore7destroyEPS_
   9              	_ZN15KernelSemaphore7destroyEPS_:
  10              	.LFB5:
  11              		.file 1 "src/KernelSemaphore.cpp"
   1:src/KernelSemaphore.cpp **** //
   2:src/KernelSemaphore.cpp **** // Created by os on 6/23/22.
   3:src/KernelSemaphore.cpp **** //
   4:src/KernelSemaphore.cpp **** #include "../h/KernelSemaphore.hpp"
   5:src/KernelSemaphore.cpp **** 
   6:src/KernelSemaphore.cpp **** void KernelSemaphore::block() {
   7:src/KernelSemaphore.cpp ****     put(KernelThread::running);
   8:src/KernelSemaphore.cpp ****     KernelThread::dispatchNoScheduler();
   9:src/KernelSemaphore.cpp ****     /*KernelThread::pushRegisters();
  10:src/KernelSemaphore.cpp ****     KernelThread* old = KernelThread::running;
  11:src/KernelSemaphore.cpp ****     KernelThread::running = Scheduler::get();
  12:src/KernelSemaphore.cpp ****     KernelThread::contextSwitch(&old->context, &KernelThread::running->context);
  13:src/KernelSemaphore.cpp ****     KernelThread::popRegisters();*/
  14:src/KernelSemaphore.cpp ****     //KernelThread::yield();
  15:src/KernelSemaphore.cpp **** }
  16:src/KernelSemaphore.cpp **** 
  17:src/KernelSemaphore.cpp **** void KernelSemaphore::unblock() {
  18:src/KernelSemaphore.cpp ****     KernelThread*t = get();
  19:src/KernelSemaphore.cpp ****     if(t)Scheduler::put(t);
  20:src/KernelSemaphore.cpp **** }
  21:src/KernelSemaphore.cpp **** 
  22:src/KernelSemaphore.cpp **** int KernelSemaphore::wait() {
  23:src/KernelSemaphore.cpp ****     if(--val<0)block();
  24:src/KernelSemaphore.cpp ****     if(KernelThread::running->retVal==-1){
  25:src/KernelSemaphore.cpp ****         KernelThread::running->retVal=0;
  26:src/KernelSemaphore.cpp ****         return -1;
  27:src/KernelSemaphore.cpp ****     }
  28:src/KernelSemaphore.cpp ****     return 0;
  29:src/KernelSemaphore.cpp **** }
  30:src/KernelSemaphore.cpp **** 
  31:src/KernelSemaphore.cpp **** int KernelSemaphore::signal() {
  32:src/KernelSemaphore.cpp ****     if (++val <= 0)unblock();
  33:src/KernelSemaphore.cpp ****     return 0;
  34:src/KernelSemaphore.cpp **** }
  35:src/KernelSemaphore.cpp **** 
  36:src/KernelSemaphore.cpp **** int KernelSemaphore::destroy(KernelSemaphore*p) {
  12              		.loc 1 36 49
  13              		.cfi_startproc
  14              	.LVL0:
  15 0000 130101FD 		addi	sp,sp,-48
  16              		.cfi_def_cfa_offset 48
  17 0004 23341102 		sd	ra,40(sp)
  18 0008 23308102 		sd	s0,32(sp)
  19 000c 233C9100 		sd	s1,24(sp)
  20 0010 23382101 		sd	s2,16(sp)
  21 0014 23343101 		sd	s3,8(sp)
  22 0018 23304101 		sd	s4,0(sp)
GAS LISTING /tmp/cc7hPsnV.s 			page 2


  23              		.cfi_offset 1, -8
  24              		.cfi_offset 8, -16
  25              		.cfi_offset 9, -24
  26              		.cfi_offset 18, -32
  27              		.cfi_offset 19, -40
  28              		.cfi_offset 20, -48
  29 001c 13040103 		addi	s0,sp,48
  30              		.cfi_def_cfa 8, 0
  31 0020 130A0500 		mv	s4,a0
  37:src/KernelSemaphore.cpp ****     KernelSemaphore::node* tr = p->head;
  32              		.loc 1 37 5
  33              		.loc 1 37 28 is_stmt 0
  34 0024 83340500 		ld	s1,0(a0)
  35              	.LVL1:
  38:src/KernelSemaphore.cpp ****     int vrati = 0;
  36              		.loc 1 38 5 is_stmt 1
  37              		.loc 1 38 9 is_stmt 0
  38 0028 93090000 		li	s3,0
  39 002c 6F00C000 		j	.L2
  40              	.LVL2:
  41              	.L7:
  42              	.LBB2:
  43              	.LBB3:
  39:src/KernelSemaphore.cpp ****     while(true){
  40:src/KernelSemaphore.cpp ****         if(tr == nullptr) break;
  41:src/KernelSemaphore.cpp ****         else{
  42:src/KernelSemaphore.cpp ****             Scheduler::put(tr->info);
  43:src/KernelSemaphore.cpp ****             tr->info->retVal=-1;
  44:src/KernelSemaphore.cpp ****             KernelSemaphore::node* temp = tr;
  45:src/KernelSemaphore.cpp ****             tr = tr->next;
  46:src/KernelSemaphore.cpp ****             int r = MemoryAllocator::free(temp);
  47:src/KernelSemaphore.cpp ****             if(r != 0) vrati = -1;
  44              		.loc 1 47 30
  45 0030 9309F0FF 		li	s3,-1
  46              	.LVL3:
  47              	.L4:
  48 0034 93040900 		mv	s1,s2
  49              	.LVL4:
  50              	.L2:
  51              	.LBE3:
  52              	.LBE2:
  39:src/KernelSemaphore.cpp ****     while(true){
  53              		.loc 1 39 5 is_stmt 1
  40:src/KernelSemaphore.cpp ****         else{
  54              		.loc 1 40 9
  55              	.LBB5:
  56 0038 638A0402 		beqz	s1,.L3
  57              	.LBB4:
  42:src/KernelSemaphore.cpp ****             tr->info->retVal=-1;
  58              		.loc 1 42 13
  42:src/KernelSemaphore.cpp ****             tr->info->retVal=-1;
  59              		.loc 1 42 27 is_stmt 0
  60 003c 03B50400 		ld	a0,0(s1)
  61 0040 97000000 		call	_ZN9Scheduler3putEP12KernelThread@plt
  61      E7800000 
  62              	.LVL5:
  43:src/KernelSemaphore.cpp ****             KernelSemaphore::node* temp = tr;
GAS LISTING /tmp/cc7hPsnV.s 			page 3


  63              		.loc 1 43 13 is_stmt 1
  43:src/KernelSemaphore.cpp ****             KernelSemaphore::node* temp = tr;
  64              		.loc 1 43 17 is_stmt 0
  65 0048 83B70400 		ld	a5,0(s1)
  43:src/KernelSemaphore.cpp ****             KernelSemaphore::node* temp = tr;
  66              		.loc 1 43 29
  67 004c 1307F0FF 		li	a4,-1
  68 0050 23A6E702 		sw	a4,44(a5)
  44:src/KernelSemaphore.cpp ****             tr = tr->next;
  69              		.loc 1 44 13 is_stmt 1
  70              	.LVL6:
  45:src/KernelSemaphore.cpp ****             int r = MemoryAllocator::free(temp);
  71              		.loc 1 45 13
  45:src/KernelSemaphore.cpp ****             int r = MemoryAllocator::free(temp);
  72              		.loc 1 45 16 is_stmt 0
  73 0054 03B98400 		ld	s2,8(s1)
  74              	.LVL7:
  46:src/KernelSemaphore.cpp ****             if(r != 0) vrati = -1;
  75              		.loc 1 46 13 is_stmt 1
  46:src/KernelSemaphore.cpp ****             if(r != 0) vrati = -1;
  76              		.loc 1 46 42 is_stmt 0
  77 0058 13850400 		mv	a0,s1
  78 005c 97000000 		call	_ZN15MemoryAllocator4freeEPv@plt
  78      E7800000 
  79              	.LVL8:
  80              		.loc 1 47 13 is_stmt 1
  81 0064 E31605FC 		bnez	a0,.L7
  82 0068 6FF0DFFC 		j	.L4
  83              	.LVL9:
  84              	.L3:
  85              	.LBE4:
  86              	.LBE5:
  48:src/KernelSemaphore.cpp ****         }
  49:src/KernelSemaphore.cpp ****     }
  50:src/KernelSemaphore.cpp ****     int r = MemoryAllocator::free(p);
  87              		.loc 1 50 5
  88              		.loc 1 50 34 is_stmt 0
  89 006c 13050A00 		mv	a0,s4
  90 0070 97000000 		call	_ZN15MemoryAllocator4freeEPv@plt
  90      E7800000 
  91              	.LVL10:
  51:src/KernelSemaphore.cpp ****     if(r!=0)vrati = -1;
  92              		.loc 1 51 5 is_stmt 1
  93 0078 63140502 		bnez	a0,.L10
  94              	.LVL11:
  95              	.L6:
  52:src/KernelSemaphore.cpp ****     return vrati;
  96              		.loc 1 52 5
  53:src/KernelSemaphore.cpp **** }
  97              		.loc 1 53 1 is_stmt 0
  98 007c 13850900 		mv	a0,s3
  99              	.LVL12:
 100 0080 83308102 		ld	ra,40(sp)
 101              		.cfi_remember_state
 102              		.cfi_restore 1
 103 0084 03340102 		ld	s0,32(sp)
 104              		.cfi_restore 8
GAS LISTING /tmp/cc7hPsnV.s 			page 4


 105              		.cfi_def_cfa 2, 48
 106 0088 83348101 		ld	s1,24(sp)
 107              		.cfi_restore 9
 108              	.LVL13:
 109 008c 03390101 		ld	s2,16(sp)
 110              		.cfi_restore 18
 111 0090 83398100 		ld	s3,8(sp)
 112              		.cfi_restore 19
 113              	.LVL14:
 114 0094 033A0100 		ld	s4,0(sp)
 115              		.cfi_restore 20
 116              	.LVL15:
 117 0098 13010103 		addi	sp,sp,48
 118              		.cfi_def_cfa_offset 0
 119 009c 67800000 		jr	ra
 120              	.LVL16:
 121              	.L10:
 122              		.cfi_restore_state
  51:src/KernelSemaphore.cpp ****     if(r!=0)vrati = -1;
 123              		.loc 1 51 19
 124 00a0 9309F0FF 		li	s3,-1
 125              	.LVL17:
 126 00a4 6FF09FFD 		j	.L6
 127              		.cfi_endproc
 128              	.LFE5:
 130              		.align	2
 131              		.globl	_ZN15KernelSemaphore15createSemaphoreEPPS_i
 133              	_ZN15KernelSemaphore15createSemaphoreEPPS_i:
 134              	.LFB6:
  54:src/KernelSemaphore.cpp **** 
  55:src/KernelSemaphore.cpp **** int KernelSemaphore::createSemaphore(KernelSemaphore **handle, int startVal) {
 135              		.loc 1 55 78 is_stmt 1
 136              		.cfi_startproc
 137              	.LVL18:
 138 00a8 130101FE 		addi	sp,sp,-32
 139              		.cfi_def_cfa_offset 32
 140 00ac 233C1100 		sd	ra,24(sp)
 141 00b0 23388100 		sd	s0,16(sp)
 142 00b4 23349100 		sd	s1,8(sp)
 143 00b8 23302101 		sd	s2,0(sp)
 144              		.cfi_offset 1, -8
 145              		.cfi_offset 8, -16
 146              		.cfi_offset 9, -24
 147              		.cfi_offset 18, -32
 148 00bc 13040102 		addi	s0,sp,32
 149              		.cfi_def_cfa 8, 0
 150 00c0 93040500 		mv	s1,a0
 151 00c4 13890500 		mv	s2,a1
  56:src/KernelSemaphore.cpp ****     size_t size = sizeof(KernelSemaphore);
 152              		.loc 1 56 5
 153              	.LVL19:
  57:src/KernelSemaphore.cpp ****     size_t sz = MemoryAllocator::roundToNumOfBlocks(size);
 154              		.loc 1 57 5
 155              		.loc 1 57 52 is_stmt 0
 156 00c8 13058001 		li	a0,24
 157              	.LVL20:
 158 00cc 97000000 		call	_ZN15MemoryAllocator18roundToNumOfBlocksEm@plt
GAS LISTING /tmp/cc7hPsnV.s 			page 5


 158      E7800000 
 159              	.LVL21:
  58:src/KernelSemaphore.cpp **** 
  59:src/KernelSemaphore.cpp ****     KernelSemaphore*tr;
 160              		.loc 1 59 5 is_stmt 1
  60:src/KernelSemaphore.cpp ****     tr = (KernelSemaphore*)MemoryAllocator::malloc(sz);
 161              		.loc 1 60 5
 162              		.loc 1 60 51 is_stmt 0
 163 00d4 97000000 		call	_ZN15MemoryAllocator6mallocEm@plt
 163      E7800000 
 164              	.LVL22:
  61:src/KernelSemaphore.cpp ****     if(!tr)return -1;
 165              		.loc 1 61 5 is_stmt 1
 166 00dc 63080502 		beqz	a0,.L13
  62:src/KernelSemaphore.cpp ****     tr->head=nullptr;
 167              		.loc 1 62 5
 168              		.loc 1 62 13 is_stmt 0
 169 00e0 23300500 		sd	zero,0(a0)
  63:src/KernelSemaphore.cpp ****     tr->tail=nullptr;
 170              		.loc 1 63 5 is_stmt 1
 171              		.loc 1 63 13 is_stmt 0
 172 00e4 23340500 		sd	zero,8(a0)
  64:src/KernelSemaphore.cpp ****     tr->val=startVal;
 173              		.loc 1 64 5 is_stmt 1
 174              		.loc 1 64 12 is_stmt 0
 175 00e8 23282501 		sw	s2,16(a0)
  65:src/KernelSemaphore.cpp ****     *handle=tr;
 176              		.loc 1 65 5 is_stmt 1
 177              		.loc 1 65 12 is_stmt 0
 178 00ec 23B0A400 		sd	a0,0(s1)
  66:src/KernelSemaphore.cpp ****     return 0;
 179              		.loc 1 66 5 is_stmt 1
 180              		.loc 1 66 12 is_stmt 0
 181 00f0 13050000 		li	a0,0
 182              	.LVL23:
 183              	.L12:
  67:src/KernelSemaphore.cpp **** }
 184              		.loc 1 67 1
 185 00f4 83308101 		ld	ra,24(sp)
 186              		.cfi_remember_state
 187              		.cfi_restore 1
 188 00f8 03340101 		ld	s0,16(sp)
 189              		.cfi_restore 8
 190              		.cfi_def_cfa 2, 32
 191 00fc 83348100 		ld	s1,8(sp)
 192              		.cfi_restore 9
 193              	.LVL24:
 194 0100 03390100 		ld	s2,0(sp)
 195              		.cfi_restore 18
 196 0104 13010102 		addi	sp,sp,32
 197              		.cfi_def_cfa_offset 0
 198 0108 67800000 		jr	ra
 199              	.LVL25:
 200              	.L13:
 201              		.cfi_restore_state
  61:src/KernelSemaphore.cpp ****     tr->head=nullptr;
 202              		.loc 1 61 20
GAS LISTING /tmp/cc7hPsnV.s 			page 6


 203 010c 1305F0FF 		li	a0,-1
 204              	.LVL26:
 205 0110 6FF05FFE 		j	.L12
 206              		.cfi_endproc
 207              	.LFE6:
 209              		.align	2
 210              		.globl	_ZN15KernelSemaphore3getEv
 212              	_ZN15KernelSemaphore3getEv:
 213              	.LFB7:
  68:src/KernelSemaphore.cpp **** 
  69:src/KernelSemaphore.cpp **** KernelThread *KernelSemaphore::get() {
 214              		.loc 1 69 38 is_stmt 1
 215              		.cfi_startproc
 216              	.LVL27:
 217 0114 130101FE 		addi	sp,sp,-32
 218              		.cfi_def_cfa_offset 32
 219 0118 233C1100 		sd	ra,24(sp)
 220 011c 23388100 		sd	s0,16(sp)
 221 0120 23349100 		sd	s1,8(sp)
 222              		.cfi_offset 1, -8
 223              		.cfi_offset 8, -16
 224              		.cfi_offset 9, -24
 225 0124 13040102 		addi	s0,sp,32
 226              		.cfi_def_cfa 8, 0
 227 0128 93070500 		mv	a5,a0
  70:src/KernelSemaphore.cpp ****     if (!head)return nullptr;
 228              		.loc 1 70 5
 229              		.loc 1 70 10 is_stmt 0
 230 012c 03350500 		ld	a0,0(a0)
 231              	.LVL28:
 232              		.loc 1 70 5
 233 0130 630E0502 		beqz	a0,.L18
  71:src/KernelSemaphore.cpp ****     node *tr = head;
 234              		.loc 1 71 5 is_stmt 1
 235              	.LVL29:
  72:src/KernelSemaphore.cpp ****     head = head->next;
 236              		.loc 1 72 5
 237              		.loc 1 72 18 is_stmt 0
 238 0134 03378500 		ld	a4,8(a0)
 239              		.loc 1 72 10
 240 0138 23B0E700 		sd	a4,0(a5)
  73:src/KernelSemaphore.cpp ****     if(!head)tail=nullptr;
 241              		.loc 1 73 5 is_stmt 1
 242 013c 63040702 		beqz	a4,.L20
 243              	.L17:
  74:src/KernelSemaphore.cpp ****     KernelThread*ret = tr->info;
 244              		.loc 1 74 5
 245              		.loc 1 74 18 is_stmt 0
 246 0140 83340500 		ld	s1,0(a0)
 247              	.LVL30:
  75:src/KernelSemaphore.cpp ****     MemoryAllocator::free((void*)tr);
 248              		.loc 1 75 5 is_stmt 1
 249              		.loc 1 75 26 is_stmt 0
 250 0144 97000000 		call	_ZN15MemoryAllocator4freeEPv@plt
 250      E7800000 
 251              	.LVL31:
  76:src/KernelSemaphore.cpp ****     return ret;
GAS LISTING /tmp/cc7hPsnV.s 			page 7


 252              		.loc 1 76 5 is_stmt 1
 253              	.L15:
  77:src/KernelSemaphore.cpp **** }
 254              		.loc 1 77 1 is_stmt 0
 255 014c 13850400 		mv	a0,s1
 256 0150 83308101 		ld	ra,24(sp)
 257              		.cfi_remember_state
 258              		.cfi_restore 1
 259 0154 03340101 		ld	s0,16(sp)
 260              		.cfi_restore 8
 261              		.cfi_def_cfa 2, 32
 262 0158 83348100 		ld	s1,8(sp)
 263              		.cfi_restore 9
 264 015c 13010102 		addi	sp,sp,32
 265              		.cfi_def_cfa_offset 0
 266 0160 67800000 		jr	ra
 267              	.LVL32:
 268              	.L20:
 269              		.cfi_restore_state
  73:src/KernelSemaphore.cpp ****     KernelThread*ret = tr->info;
 270              		.loc 1 73 14 is_stmt 1 discriminator 1
  73:src/KernelSemaphore.cpp ****     KernelThread*ret = tr->info;
 271              		.loc 1 73 18 is_stmt 0 discriminator 1
 272 0164 23B40700 		sd	zero,8(a5)
 273 0168 6FF09FFD 		j	.L17
 274              	.LVL33:
 275              	.L18:
  70:src/KernelSemaphore.cpp ****     node *tr = head;
 276              		.loc 1 70 22
 277 016c 93040500 		mv	s1,a0
 278 0170 6FF0DFFD 		j	.L15
 279              		.cfi_endproc
 280              	.LFE7:
 282              		.align	2
 283              		.globl	_ZN15KernelSemaphore7unblockEv
 285              	_ZN15KernelSemaphore7unblockEv:
 286              	.LFB2:
  17:src/KernelSemaphore.cpp ****     KernelThread*t = get();
 287              		.loc 1 17 33 is_stmt 1
 288              		.cfi_startproc
 289              	.LVL34:
 290 0174 130101FF 		addi	sp,sp,-16
 291              		.cfi_def_cfa_offset 16
 292 0178 23341100 		sd	ra,8(sp)
 293 017c 23308100 		sd	s0,0(sp)
 294              		.cfi_offset 1, -8
 295              		.cfi_offset 8, -16
 296 0180 13040101 		addi	s0,sp,16
 297              		.cfi_def_cfa 8, 0
  18:src/KernelSemaphore.cpp ****     if(t)Scheduler::put(t);
 298              		.loc 1 18 5
  18:src/KernelSemaphore.cpp ****     if(t)Scheduler::put(t);
 299              		.loc 1 18 25 is_stmt 0
 300 0184 97000000 		call	_ZN15KernelSemaphore3getEv
 300      E7800000 
 301              	.LVL35:
  19:src/KernelSemaphore.cpp **** }
GAS LISTING /tmp/cc7hPsnV.s 			page 8


 302              		.loc 1 19 5 is_stmt 1
 303 018c 63060500 		beqz	a0,.L21
  19:src/KernelSemaphore.cpp **** }
 304              		.loc 1 19 10 discriminator 1
  19:src/KernelSemaphore.cpp **** }
 305              		.loc 1 19 24 is_stmt 0 discriminator 1
 306 0190 97000000 		call	_ZN9Scheduler3putEP12KernelThread@plt
 306      E7800000 
 307              	.LVL36:
 308              	.L21:
  20:src/KernelSemaphore.cpp **** 
 309              		.loc 1 20 1
 310 0198 83308100 		ld	ra,8(sp)
 311              		.cfi_restore 1
 312 019c 03340100 		ld	s0,0(sp)
 313              		.cfi_restore 8
 314              		.cfi_def_cfa 2, 16
 315 01a0 13010101 		addi	sp,sp,16
 316              		.cfi_def_cfa_offset 0
 317 01a4 67800000 		jr	ra
 318              		.cfi_endproc
 319              	.LFE2:
 321              		.align	2
 322              		.globl	_ZN15KernelSemaphore6signalEv
 324              	_ZN15KernelSemaphore6signalEv:
 325              	.LFB4:
  31:src/KernelSemaphore.cpp ****     if (++val <= 0)unblock();
 326              		.loc 1 31 31 is_stmt 1
 327              		.cfi_startproc
 328              	.LVL37:
  32:src/KernelSemaphore.cpp ****     return 0;
 329              		.loc 1 32 5
  32:src/KernelSemaphore.cpp ****     return 0;
 330              		.loc 1 32 11 is_stmt 0
 331 01a8 83270501 		lw	a5,16(a0)
  32:src/KernelSemaphore.cpp ****     return 0;
 332              		.loc 1 32 9
 333 01ac 9B871700 		addiw	a5,a5,1
 334 01b0 1B870700 		sext.w	a4,a5
  32:src/KernelSemaphore.cpp ****     return 0;
 335              		.loc 1 32 15
 336 01b4 2328F500 		sw	a5,16(a0)
  32:src/KernelSemaphore.cpp ****     return 0;
 337              		.loc 1 32 5
 338 01b8 6356E000 		blez	a4,.L30
  33:src/KernelSemaphore.cpp **** }
 339              		.loc 1 33 5 is_stmt 1
  34:src/KernelSemaphore.cpp **** 
 340              		.loc 1 34 1 is_stmt 0
 341 01bc 13050000 		li	a0,0
 342              	.LVL38:
 343 01c0 67800000 		ret
 344              	.LVL39:
 345              	.L30:
  31:src/KernelSemaphore.cpp ****     if (++val <= 0)unblock();
 346              		.loc 1 31 31 discriminator 1
 347 01c4 130101FF 		addi	sp,sp,-16
GAS LISTING /tmp/cc7hPsnV.s 			page 9


 348              		.cfi_def_cfa_offset 16
 349 01c8 23341100 		sd	ra,8(sp)
 350 01cc 23308100 		sd	s0,0(sp)
 351              		.cfi_offset 1, -8
 352              		.cfi_offset 8, -16
 353 01d0 13040101 		addi	s0,sp,16
 354              		.cfi_def_cfa 8, 0
  32:src/KernelSemaphore.cpp ****     return 0;
 355              		.loc 1 32 20 is_stmt 1 discriminator 1
  32:src/KernelSemaphore.cpp ****     return 0;
 356              		.loc 1 32 27 is_stmt 0 discriminator 1
 357 01d4 97000000 		call	_ZN15KernelSemaphore7unblockEv
 357      E7800000 
 358              	.LVL40:
  33:src/KernelSemaphore.cpp **** }
 359              		.loc 1 33 5 is_stmt 1 discriminator 1
  34:src/KernelSemaphore.cpp **** 
 360              		.loc 1 34 1 is_stmt 0 discriminator 1
 361 01dc 13050000 		li	a0,0
 362 01e0 83308100 		ld	ra,8(sp)
 363              		.cfi_restore 1
 364 01e4 03340100 		ld	s0,0(sp)
 365              		.cfi_restore 8
 366              		.cfi_def_cfa 2, 16
 367 01e8 13010101 		addi	sp,sp,16
 368              		.cfi_def_cfa_offset 0
 369 01ec 67800000 		jr	ra
 370              		.cfi_endproc
 371              	.LFE4:
 373              		.align	2
 374              		.globl	_ZN15KernelSemaphore3putEP12KernelThread
 376              	_ZN15KernelSemaphore3putEP12KernelThread:
 377              	.LFB8:
  78:src/KernelSemaphore.cpp **** 
  79:src/KernelSemaphore.cpp **** void KernelSemaphore::put(KernelThread* k) {
 378              		.loc 1 79 44 is_stmt 1
 379              		.cfi_startproc
 380              	.LVL41:
 381 01f0 130101FE 		addi	sp,sp,-32
 382              		.cfi_def_cfa_offset 32
 383 01f4 233C1100 		sd	ra,24(sp)
 384 01f8 23388100 		sd	s0,16(sp)
 385 01fc 23349100 		sd	s1,8(sp)
 386 0200 23302101 		sd	s2,0(sp)
 387              		.cfi_offset 1, -8
 388              		.cfi_offset 8, -16
 389              		.cfi_offset 9, -24
 390              		.cfi_offset 18, -32
 391 0204 13040102 		addi	s0,sp,32
 392              		.cfi_def_cfa 8, 0
 393 0208 93040500 		mv	s1,a0
 394 020c 13890500 		mv	s2,a1
  80:src/KernelSemaphore.cpp ****     size_t size = sizeof(node);
 395              		.loc 1 80 5
 396              	.LVL42:
  81:src/KernelSemaphore.cpp ****     size_t sz = MemoryAllocator::roundToNumOfBlocks(size);
 397              		.loc 1 81 5
GAS LISTING /tmp/cc7hPsnV.s 			page 10


 398              		.loc 1 81 52 is_stmt 0
 399 0210 13050001 		li	a0,16
 400              	.LVL43:
 401 0214 97000000 		call	_ZN15MemoryAllocator18roundToNumOfBlocksEm@plt
 401      E7800000 
 402              	.LVL44:
  82:src/KernelSemaphore.cpp **** 
  83:src/KernelSemaphore.cpp ****     if(!head){
 403              		.loc 1 83 5 is_stmt 1
 404              	.LBB6:
 405              		.loc 1 83 9 is_stmt 0
 406 021c 83B70400 		ld	a5,0(s1)
 407              		.loc 1 83 5
 408 0220 63800704 		beqz	a5,.L35
 409              	.LBB7:
  84:src/KernelSemaphore.cpp ****         head =(node*)MemoryAllocator::malloc(sz);
  85:src/KernelSemaphore.cpp ****         head->next = nullptr;
  86:src/KernelSemaphore.cpp ****         head->info =k;
  87:src/KernelSemaphore.cpp ****         tail = head;
  88:src/KernelSemaphore.cpp ****     }
  89:src/KernelSemaphore.cpp ****     else{
  90:src/KernelSemaphore.cpp ****         node* tr;
 410              		.loc 1 90 9 is_stmt 1
  91:src/KernelSemaphore.cpp ****         tr = (node*)MemoryAllocator::malloc(sz);
 411              		.loc 1 91 9
 412              		.loc 1 91 44 is_stmt 0
 413 0224 97000000 		call	_ZN15MemoryAllocator6mallocEm@plt
 413      E7800000 
 414              	.LVL45:
  92:src/KernelSemaphore.cpp ****         tr->next = nullptr;
 415              		.loc 1 92 9 is_stmt 1
 416              		.loc 1 92 18 is_stmt 0
 417 022c 23340500 		sd	zero,8(a0)
  93:src/KernelSemaphore.cpp ****         tr->info = k;
 418              		.loc 1 93 9 is_stmt 1
 419              		.loc 1 93 18 is_stmt 0
 420 0230 23302501 		sd	s2,0(a0)
  94:src/KernelSemaphore.cpp ****         tail->next=tr;
 421              		.loc 1 94 9 is_stmt 1
 422 0234 83B78400 		ld	a5,8(s1)
 423              		.loc 1 94 19 is_stmt 0
 424 0238 23B4A700 		sd	a0,8(a5)
  95:src/KernelSemaphore.cpp ****         tail = tail->next;
 425              		.loc 1 95 9 is_stmt 1
 426              		.loc 1 95 16 is_stmt 0
 427 023c 83B78400 		ld	a5,8(s1)
 428              		.loc 1 95 22
 429 0240 83B78700 		ld	a5,8(a5)
 430              		.loc 1 95 14
 431 0244 23B4F400 		sd	a5,8(s1)
 432              	.LVL46:
 433              	.L31:
 434              	.LBE7:
 435              	.LBE6:
  96:src/KernelSemaphore.cpp ****     }
  97:src/KernelSemaphore.cpp **** }
 436              		.loc 1 97 1
GAS LISTING /tmp/cc7hPsnV.s 			page 11


 437 0248 83308101 		ld	ra,24(sp)
 438              		.cfi_remember_state
 439              		.cfi_restore 1
 440 024c 03340101 		ld	s0,16(sp)
 441              		.cfi_restore 8
 442              		.cfi_def_cfa 2, 32
 443 0250 83348100 		ld	s1,8(sp)
 444              		.cfi_restore 9
 445              	.LVL47:
 446 0254 03390100 		ld	s2,0(sp)
 447              		.cfi_restore 18
 448              	.LVL48:
 449 0258 13010102 		addi	sp,sp,32
 450              		.cfi_def_cfa_offset 0
 451 025c 67800000 		jr	ra
 452              	.LVL49:
 453              	.L35:
 454              		.cfi_restore_state
 455              	.LBB8:
  84:src/KernelSemaphore.cpp ****         head->next = nullptr;
 456              		.loc 1 84 9 is_stmt 1
  84:src/KernelSemaphore.cpp ****         head->next = nullptr;
 457              		.loc 1 84 45 is_stmt 0
 458 0260 97000000 		call	_ZN15MemoryAllocator6mallocEm@plt
 458      E7800000 
 459              	.LVL50:
  84:src/KernelSemaphore.cpp ****         head->next = nullptr;
 460              		.loc 1 84 14
 461 0268 23B0A400 		sd	a0,0(s1)
  85:src/KernelSemaphore.cpp ****         head->info =k;
 462              		.loc 1 85 9 is_stmt 1
  85:src/KernelSemaphore.cpp ****         head->info =k;
 463              		.loc 1 85 20 is_stmt 0
 464 026c 23340500 		sd	zero,8(a0)
  86:src/KernelSemaphore.cpp ****         tail = head;
 465              		.loc 1 86 9 is_stmt 1
 466 0270 83B70400 		ld	a5,0(s1)
  86:src/KernelSemaphore.cpp ****         tail = head;
 467              		.loc 1 86 20 is_stmt 0
 468 0274 23B02701 		sd	s2,0(a5)
  87:src/KernelSemaphore.cpp ****     }
 469              		.loc 1 87 9 is_stmt 1
  87:src/KernelSemaphore.cpp ****     }
 470              		.loc 1 87 16 is_stmt 0
 471 0278 83B70400 		ld	a5,0(s1)
  87:src/KernelSemaphore.cpp ****     }
 472              		.loc 1 87 14
 473 027c 23B4F400 		sd	a5,8(s1)
 474 0280 6FF09FFC 		j	.L31
 475              	.LBE8:
 476              		.cfi_endproc
 477              	.LFE8:
 479              		.align	2
 480              		.globl	_ZN15KernelSemaphore5blockEv
 482              	_ZN15KernelSemaphore5blockEv:
 483              	.LFB1:
   6:src/KernelSemaphore.cpp ****     put(KernelThread::running);
GAS LISTING /tmp/cc7hPsnV.s 			page 12


 484              		.loc 1 6 31 is_stmt 1
 485              		.cfi_startproc
 486              	.LVL51:
 487 0284 130101FF 		addi	sp,sp,-16
 488              		.cfi_def_cfa_offset 16
 489 0288 23341100 		sd	ra,8(sp)
 490 028c 23308100 		sd	s0,0(sp)
 491              		.cfi_offset 1, -8
 492              		.cfi_offset 8, -16
 493 0290 13040101 		addi	s0,sp,16
 494              		.cfi_def_cfa 8, 0
   7:src/KernelSemaphore.cpp ****     KernelThread::dispatchNoScheduler();
 495              		.loc 1 7 5
   7:src/KernelSemaphore.cpp ****     KernelThread::dispatchNoScheduler();
 496              		.loc 1 7 8 is_stmt 0
 497 0294 97070000 		la	a5,_ZN12KernelThread7runningE
 497      83B70700 
 498 029c 83B50700 		ld	a1,0(a5)
 499 02a0 97000000 		call	_ZN15KernelSemaphore3putEP12KernelThread
 499      E7800000 
 500              	.LVL52:
   8:src/KernelSemaphore.cpp ****     /*KernelThread::pushRegisters();
 501              		.loc 1 8 5 is_stmt 1
   8:src/KernelSemaphore.cpp ****     /*KernelThread::pushRegisters();
 502              		.loc 1 8 38 is_stmt 0
 503 02a8 97000000 		call	_ZN12KernelThread19dispatchNoSchedulerEv@plt
 503      E7800000 
 504              	.LVL53:
  15:src/KernelSemaphore.cpp **** 
 505              		.loc 1 15 1
 506 02b0 83308100 		ld	ra,8(sp)
 507              		.cfi_restore 1
 508 02b4 03340100 		ld	s0,0(sp)
 509              		.cfi_restore 8
 510              		.cfi_def_cfa 2, 16
 511 02b8 13010101 		addi	sp,sp,16
 512              		.cfi_def_cfa_offset 0
 513 02bc 67800000 		jr	ra
 514              		.cfi_endproc
 515              	.LFE1:
 517              		.align	2
 518              		.globl	_ZN15KernelSemaphore4waitEv
 520              	_ZN15KernelSemaphore4waitEv:
 521              	.LFB3:
  22:src/KernelSemaphore.cpp ****     if(--val<0)block();
 522              		.loc 1 22 29 is_stmt 1
 523              		.cfi_startproc
 524              	.LVL54:
  23:src/KernelSemaphore.cpp ****     if(KernelThread::running->retVal==-1){
 525              		.loc 1 23 5
  23:src/KernelSemaphore.cpp ****     if(KernelThread::running->retVal==-1){
 526              		.loc 1 23 10 is_stmt 0
 527 02c0 83270501 		lw	a5,16(a0)
  23:src/KernelSemaphore.cpp ****     if(KernelThread::running->retVal==-1){
 528              		.loc 1 23 8
 529 02c4 9B87F7FF 		addiw	a5,a5,-1
  23:src/KernelSemaphore.cpp ****     if(KernelThread::running->retVal==-1){
GAS LISTING /tmp/cc7hPsnV.s 			page 13


 530              		.loc 1 23 13
 531 02c8 2328F500 		sw	a5,16(a0)
  23:src/KernelSemaphore.cpp ****     if(KernelThread::running->retVal==-1){
 532              		.loc 1 23 5
 533 02cc 13970702 		slli	a4,a5,32
 534 02d0 63420702 		bltz	a4,.L49
  24:src/KernelSemaphore.cpp ****         KernelThread::running->retVal=0;
 535              		.loc 1 24 5 is_stmt 1
  24:src/KernelSemaphore.cpp ****         KernelThread::running->retVal=0;
 536              		.loc 1 24 31 is_stmt 0
 537 02d4 97070000 		la	a5,_ZN12KernelThread7runningE
 537      83B70700 
 538 02dc 83B70700 		ld	a5,0(a5)
 539 02e0 03A5C702 		lw	a0,44(a5)
 540              	.LVL55:
  24:src/KernelSemaphore.cpp ****         KernelThread::running->retVal=0;
 541              		.loc 1 24 5
 542 02e4 1307F0FF 		li	a4,-1
 543 02e8 630CE504 		beq	a0,a4,.L50
  28:src/KernelSemaphore.cpp **** }
 544              		.loc 1 28 12
 545 02ec 13050000 		li	a0,0
  29:src/KernelSemaphore.cpp **** 
 546              		.loc 1 29 1
 547 02f0 67800000 		ret
 548              	.LVL56:
 549              	.L49:
  22:src/KernelSemaphore.cpp ****     if(--val<0)block();
 550              		.loc 1 22 29 discriminator 1
 551 02f4 130101FF 		addi	sp,sp,-16
 552              		.cfi_def_cfa_offset 16
 553 02f8 23341100 		sd	ra,8(sp)
 554 02fc 23308100 		sd	s0,0(sp)
 555              		.cfi_offset 1, -8
 556              		.cfi_offset 8, -16
 557 0300 13040101 		addi	s0,sp,16
 558              		.cfi_def_cfa 8, 0
  23:src/KernelSemaphore.cpp ****     if(KernelThread::running->retVal==-1){
 559              		.loc 1 23 16 is_stmt 1 discriminator 1
  23:src/KernelSemaphore.cpp ****     if(KernelThread::running->retVal==-1){
 560              		.loc 1 23 21 is_stmt 0 discriminator 1
 561 0304 97000000 		call	_ZN15KernelSemaphore5blockEv
 561      E7800000 
 562              	.LVL57:
  24:src/KernelSemaphore.cpp ****         KernelThread::running->retVal=0;
 563              		.loc 1 24 5 is_stmt 1 discriminator 1
  24:src/KernelSemaphore.cpp ****         KernelThread::running->retVal=0;
 564              		.loc 1 24 31 is_stmt 0 discriminator 1
 565 030c 97070000 		la	a5,_ZN12KernelThread7runningE
 565      83B70700 
 566 0314 83B70700 		ld	a5,0(a5)
 567 0318 03A5C702 		lw	a0,44(a5)
  24:src/KernelSemaphore.cpp ****         KernelThread::running->retVal=0;
 568              		.loc 1 24 5 discriminator 1
 569 031c 1307F0FF 		li	a4,-1
 570 0320 630CE500 		beq	a0,a4,.L51
  28:src/KernelSemaphore.cpp **** }
GAS LISTING /tmp/cc7hPsnV.s 			page 14


 571              		.loc 1 28 12
 572 0324 13050000 		li	a0,0
 573              	.L40:
  29:src/KernelSemaphore.cpp **** 
 574              		.loc 1 29 1
 575 0328 83308100 		ld	ra,8(sp)
 576              		.cfi_remember_state
 577              		.cfi_restore 1
 578 032c 03340100 		ld	s0,0(sp)
 579              		.cfi_restore 8
 580              		.cfi_def_cfa 2, 16
 581 0330 13010101 		addi	sp,sp,16
 582              		.cfi_def_cfa_offset 0
 583 0334 67800000 		jr	ra
 584              	.L51:
 585              		.cfi_restore_state
  25:src/KernelSemaphore.cpp ****         return -1;
 586              		.loc 1 25 9 is_stmt 1
  25:src/KernelSemaphore.cpp ****         return -1;
 587              		.loc 1 25 38 is_stmt 0
 588 0338 23A60702 		sw	zero,44(a5)
  26:src/KernelSemaphore.cpp ****     }
 589              		.loc 1 26 9 is_stmt 1
  26:src/KernelSemaphore.cpp ****     }
 590              		.loc 1 26 17 is_stmt 0
 591 033c 6FF0DFFE 		j	.L40
 592              	.L50:
 593              		.cfi_def_cfa_register 2
 594              		.cfi_restore 1
 595              		.cfi_restore 8
  25:src/KernelSemaphore.cpp ****         return -1;
 596              		.loc 1 25 9 is_stmt 1
  25:src/KernelSemaphore.cpp ****         return -1;
 597              		.loc 1 25 38 is_stmt 0
 598 0340 23A60702 		sw	zero,44(a5)
  26:src/KernelSemaphore.cpp ****     }
 599              		.loc 1 26 9 is_stmt 1
  26:src/KernelSemaphore.cpp ****     }
 600              		.loc 1 26 17 is_stmt 0
 601 0344 67800000 		ret
 602              		.cfi_endproc
 603              	.LFE3:
 605              	.Letext0:
 606              		.file 2 "src/../h/../lib/hw.h"
 607              		.file 3 "src/../h/../h/../h/MemoryAllocator.hpp"
 608              		.file 4 "src/../h/../h/Scheduler.hpp"
 609              		.file 5 "src/../h/KernelThread.hpp"
 610              		.file 6 "src/../h/KernelSemaphore.hpp"
GAS LISTING /tmp/cc7hPsnV.s 			page 15

