GAS LISTING /tmp/ccqgg1ZZ.s 			page 1


   1              		.file	"main.cpp"
   2              		.option pic
   3              		.option norelax
   4              		.text
   5              	.Ltext0:
   6              		.align	2
   7              		.globl	main
   9              	main:
  10              	.LFB1:
  11              		.file 1 "src/main.cpp"
   1:src/main.cpp  **** #include "../h/syscall_c.hpp"
   2:src/main.cpp  **** #include "../test/userMain.hpp"
   3:src/main.cpp  **** extern "C" void supervisorTrap();
   4:src/main.cpp  **** 
   5:src/main.cpp  **** void main(){
  12              		.loc 1 5 12
  13              		.cfi_startproc
  14 0000 130101FE 		addi	sp,sp,-32
  15              		.cfi_def_cfa_offset 32
  16 0004 233C1100 		sd	ra,24(sp)
  17 0008 23388100 		sd	s0,16(sp)
  18              		.cfi_offset 1, -8
  19              		.cfi_offset 8, -16
  20 000c 13040102 		addi	s0,sp,32
  21              		.cfi_def_cfa 8, 0
   6:src/main.cpp  ****     MemoryAllocator::init();
  22              		.loc 1 6 5
  23              		.loc 1 6 26 is_stmt 0
  24 0010 97000000 		call	_ZN15MemoryAllocator4initEv@plt
  24      E7800000 
  25              	.LVL0:
   7:src/main.cpp  ****     __asm__ volatile ("csrw stvec, %0" : :"r"(&supervisorTrap));
  26              		.loc 1 7 5 is_stmt 1
  27              		.loc 1 7 64 is_stmt 0
  28 0018 97070000 		la	a5,supervisorTrap
  28      83B70700 
  29              	#APP
  30              	# 7 "src/main.cpp" 1
   8              	
   9:src/main.cpp  ****     thread_t mainThread;
  31              		csrw stvec, a5
  32              	# 0 "" 2
  33              		.loc 1 9 5 is_stmt 1
  10:src/main.cpp  ****     thread_create(&mainThread, nullptr, nullptr);
  34              		.loc 1 10 5
  35              		.loc 1 10 18 is_stmt 0
  36              	#NO_APP
  37 0024 13060000 		li	a2,0
  38 0028 93050000 		li	a1,0
  39 002c 130584FE 		addi	a0,s0,-24
  40 0030 97000000 		call	_Z13thread_createPP12KernelThreadPFvPvES2_@plt
  40      E7800000 
  41              	.LVL1:
  11:src/main.cpp  ****     KernelThread::running = mainThread;
  42              		.loc 1 11 5 is_stmt 1
  43              		.loc 1 11 27 is_stmt 0
  44 0038 97070000 		la	a5,_ZN12KernelThread7runningE
GAS LISTING /tmp/ccqgg1ZZ.s 			page 2


  44      83B70700 
  45 0040 033784FE 		ld	a4,-24(s0)
  46 0044 23B0E700 		sd	a4,0(a5)
  12:src/main.cpp  ****     KernelThread::initIdle();
  47              		.loc 1 12 5 is_stmt 1
  48              		.loc 1 12 27 is_stmt 0
  49 0048 97000000 		call	_ZN12KernelThread8initIdleEv@plt
  49      E7800000 
  50              	.LVL2:
  13:src/main.cpp  ****     KernelThread::initPut();
  51              		.loc 1 13 5 is_stmt 1
  52              		.loc 1 13 26 is_stmt 0
  53 0050 97000000 		call	_ZN12KernelThread7initPutEv@plt
  53      E7800000 
  54              	.LVL3:
  14:src/main.cpp  ****     KernelBuffer::createBuff();
  55              		.loc 1 14 5 is_stmt 1
  56              		.loc 1 14 29 is_stmt 0
  57 0058 97000000 		call	_ZN12KernelBuffer10createBuffEv@plt
  57      E7800000 
  58              	.LVL4:
  15:src/main.cpp  **** 
  16:src/main.cpp  **** 
  17:src/main.cpp  ****     changeToUserMode();
  59              		.loc 1 17 5 is_stmt 1
  60              		.loc 1 17 21 is_stmt 0
  61 0060 97000000 		call	_Z16changeToUserModev@plt
  61      E7800000 
  62              	.LVL5:
  18:src/main.cpp  **** 
  19:src/main.cpp  ****     userMain();
  63              		.loc 1 19 5 is_stmt 1
  64              		.loc 1 19 13 is_stmt 0
  65 0068 97000000 		call	_Z8userMainv@plt
  65      E7800000 
  66              	.LVL6:
  67 0070 6F004002 		j	.L3
  68              	.L7:
  20:src/main.cpp  **** 
  21:src/main.cpp  **** 
  22:src/main.cpp  **** 
  23:src/main.cpp  ****     while(KernelBuffer::ulaz->getCnt()>0 || KernelBuffer::izlaz->getCnt()>0){
  24:src/main.cpp  ****                 while(KernelBuffer::ulaz->getCnt()>0)getc();
  69              		.loc 1 24 54 is_stmt 1 discriminator 2
  70              		.loc 1 24 58 is_stmt 0 discriminator 2
  71 0074 97000000 		call	_Z4getcv@plt
  71      E7800000 
  72              	.LVL7:
  73              	.L4:
  74              		.loc 1 24 17 is_stmt 1
  75              		.loc 1 24 51
  76              		.loc 1 24 49 is_stmt 0
  77 007c 97070000 		la	a5,_ZN12KernelBuffer4ulazE
  77      83B70700 
  78 0084 03B50700 		ld	a0,0(a5)
  79 0088 97000000 		call	_ZN12KernelBuffer6getCntEv@plt
  79      E7800000 
GAS LISTING /tmp/ccqgg1ZZ.s 			page 3


  80              	.LVL8:
  81              		.loc 1 24 51
  82 0090 E342A0FE 		bgtz	a0,.L7
  83              	.L3:
  23:src/main.cpp  ****                 while(KernelBuffer::ulaz->getCnt()>0)getc();
  84              		.loc 1 23 5 is_stmt 1
  23:src/main.cpp  ****                 while(KernelBuffer::ulaz->getCnt()>0)getc();
  85              		.loc 1 23 42
  23:src/main.cpp  ****                 while(KernelBuffer::ulaz->getCnt()>0)getc();
  86              		.loc 1 23 37 is_stmt 0
  87 0094 97070000 		la	a5,_ZN12KernelBuffer4ulazE
  87      83B70700 
  88 009c 03B50700 		ld	a0,0(a5)
  89 00a0 97000000 		call	_ZN12KernelBuffer6getCntEv@plt
  89      E7800000 
  90              	.LVL9:
  23:src/main.cpp  ****                 while(KernelBuffer::ulaz->getCnt()>0)getc();
  91              		.loc 1 23 42
  92 00a8 E34AA0FC 		bgtz	a0,.L4
  23:src/main.cpp  ****                 while(KernelBuffer::ulaz->getCnt()>0)getc();
  93              		.loc 1 23 72 discriminator 3
  94 00ac 97070000 		la	a5,_ZN12KernelBuffer5izlazE
  94      83B70700 
  95 00b4 03B50700 		ld	a0,0(a5)
  96 00b8 97000000 		call	_ZN12KernelBuffer6getCntEv@plt
  96      E7800000 
  97              	.LVL10:
  23:src/main.cpp  ****                 while(KernelBuffer::ulaz->getCnt()>0)getc();
  98              		.loc 1 23 42 discriminator 3
  99 00c0 E34EA0FA 		bgtz	a0,.L4
  25:src/main.cpp  ****     }
  26:src/main.cpp  **** }...
 100              		.loc 1 26 1
 101 00c4 83308101 		ld	ra,24(sp)
 102              		.cfi_restore 1
 103 00c8 03340101 		ld	s0,16(sp)
 104              		.cfi_restore 8
 105              		.cfi_def_cfa 2, 32
 106 00cc 13010102 		addi	sp,sp,32
 107              		.cfi_def_cfa_offset 0
 108 00d0 67800000 		jr	ra
 109              		.cfi_endproc
 110              	.LFE1:
 112              	.Letext0:
 113              		.file 2 "src/../h/../lib/hw.h"
 114              		.file 3 "src/../h/../h/../h/MemoryAllocator.hpp"
 115              		.file 4 "src/../h/KernelThread.hpp"
 116              		.file 5 "src/../h/KernelSemaphore.hpp"
 117              		.file 6 "src/../h/KernelBuffer.hpp"
 118              		.file 7 "src/../h/syscall_c.hpp"
 119              		.file 8 "src/../test/userMain.hpp"
GAS LISTING /tmp/ccqgg1ZZ.s 			page 4

