GAS LISTING /tmp/ccHgsLu9.s 			page 1


   1              		.file	"Scheduler.cpp"
   2              		.option pic
   3              		.option norelax
   4              		.text
   5              	.Ltext0:
   6              		.align	2
   7              		.globl	_ZN9Scheduler3putEP12KernelThread
   9              	_ZN9Scheduler3putEP12KernelThread:
  10              	.LFB1:
  11              		.file 1 "src/Scheduler.cpp"
   1:src/Scheduler.cpp **** #include "../h/Scheduler.hpp"
   2:src/Scheduler.cpp **** #include "../test/printing.hpp"
   3:src/Scheduler.cpp **** Scheduler::node* Scheduler::head = nullptr;
   4:src/Scheduler.cpp **** 
   5:src/Scheduler.cpp **** Scheduler::node* Scheduler::tail = nullptr;
   6:src/Scheduler.cpp **** 
   7:src/Scheduler.cpp **** void Scheduler::put(KernelThread * k) {
  12              		.loc 1 7 39
  13              		.cfi_startproc
  14              	.LVL0:
  15 0000 130101FE 		addi	sp,sp,-32
  16              		.cfi_def_cfa_offset 32
  17 0004 233C1100 		sd	ra,24(sp)
  18 0008 23388100 		sd	s0,16(sp)
  19 000c 23349100 		sd	s1,8(sp)
  20              		.cfi_offset 1, -8
  21              		.cfi_offset 8, -16
  22              		.cfi_offset 9, -24
  23 0010 13040102 		addi	s0,sp,32
  24              		.cfi_def_cfa 8, 0
  25 0014 93040500 		mv	s1,a0
   8:src/Scheduler.cpp **** 
   9:src/Scheduler.cpp ****     size_t size = sizeof(Scheduler::node);
  26              		.loc 1 9 5
  27              	.LVL1:
  10:src/Scheduler.cpp ****     size_t sz = MemoryAllocator::roundToNumOfBlocks(size);
  28              		.loc 1 10 5
  29              		.loc 1 10 52 is_stmt 0
  30 0018 13050001 		li	a0,16
  31              	.LVL2:
  32 001c 97000000 		call	_ZN15MemoryAllocator18roundToNumOfBlocksEm@plt
  32      E7800000 
  33              	.LVL3:
  11:src/Scheduler.cpp **** 
  12:src/Scheduler.cpp ****     if(!head){
  34              		.loc 1 12 5 is_stmt 1
  35              	.LBB2:
  36              		.loc 1 12 8 is_stmt 0
  37 0024 97070000 		ld	a5,.LANCHOR0
  37      83B70700 
  38              		.loc 1 12 5
  39 002c 63820704 		beqz	a5,.L5
  40              	.LBB3:
  13:src/Scheduler.cpp ****         head =(Scheduler::node*)MemoryAllocator::malloc(sz);
  14:src/Scheduler.cpp ****         head->next = nullptr;
  15:src/Scheduler.cpp ****         head->info =k;
  16:src/Scheduler.cpp ****         tail = head;
GAS LISTING /tmp/ccHgsLu9.s 			page 2


  17:src/Scheduler.cpp ****     }
  18:src/Scheduler.cpp ****     else{
  19:src/Scheduler.cpp ****         Scheduler::node* tr;
  41              		.loc 1 19 9 is_stmt 1
  20:src/Scheduler.cpp ****         tr = (Scheduler::node*)MemoryAllocator::malloc(sz);
  42              		.loc 1 20 9
  43              		.loc 1 20 55 is_stmt 0
  44 0030 97000000 		call	_ZN15MemoryAllocator6mallocEm@plt
  44      E7800000 
  45              	.LVL4:
  21:src/Scheduler.cpp ****         tr->next = nullptr;
  46              		.loc 1 21 9 is_stmt 1
  47              		.loc 1 21 18 is_stmt 0
  48 0038 23300500 		sd	zero,0(a0)
  22:src/Scheduler.cpp ****         tr->info = k;
  49              		.loc 1 22 9 is_stmt 1
  50              		.loc 1 22 18 is_stmt 0
  51 003c 23349500 		sd	s1,8(a0)
  23:src/Scheduler.cpp ****         tail->next=tr;
  52              		.loc 1 23 9 is_stmt 1
  53              		.loc 1 23 15 is_stmt 0
  54 0040 97070000 		lla	a5,.LANCHOR0
  54      93870700 
  55 0048 03B78700 		ld	a4,8(a5)
  56              		.loc 1 23 19
  57 004c 2330A700 		sd	a0,0(a4)
  24:src/Scheduler.cpp ****         tail = tail->next;
  58              		.loc 1 24 9 is_stmt 1
  59              		.loc 1 24 22 is_stmt 0
  60 0050 03B78700 		ld	a4,8(a5)
  61 0054 03370700 		ld	a4,0(a4)
  62              		.loc 1 24 14
  63 0058 23B4E700 		sd	a4,8(a5)
  64              	.LVL5:
  65              	.L1:
  66              	.LBE3:
  67              	.LBE2:
  25:src/Scheduler.cpp ****     }
  26:src/Scheduler.cpp **** }
  68              		.loc 1 26 1
  69 005c 83308101 		ld	ra,24(sp)
  70              		.cfi_remember_state
  71              		.cfi_restore 1
  72 0060 03340101 		ld	s0,16(sp)
  73              		.cfi_restore 8
  74              		.cfi_def_cfa 2, 32
  75 0064 83348100 		ld	s1,8(sp)
  76              		.cfi_restore 9
  77              	.LVL6:
  78 0068 13010102 		addi	sp,sp,32
  79              		.cfi_def_cfa_offset 0
  80 006c 67800000 		jr	ra
  81              	.LVL7:
  82              	.L5:
  83              		.cfi_restore_state
  84              	.LBB4:
  13:src/Scheduler.cpp ****         head->next = nullptr;
GAS LISTING /tmp/ccHgsLu9.s 			page 3


  85              		.loc 1 13 9 is_stmt 1
  13:src/Scheduler.cpp ****         head->next = nullptr;
  86              		.loc 1 13 56 is_stmt 0
  87 0070 97000000 		call	_ZN15MemoryAllocator6mallocEm@plt
  87      E7800000 
  88              	.LVL8:
  13:src/Scheduler.cpp ****         head->next = nullptr;
  89              		.loc 1 13 14
  90 0078 97070000 		lla	a5,.LANCHOR0
  90      93870700 
  91 0080 23B0A700 		sd	a0,0(a5)
  14:src/Scheduler.cpp ****         head->info =k;
  92              		.loc 1 14 9 is_stmt 1
  14:src/Scheduler.cpp ****         head->info =k;
  93              		.loc 1 14 20 is_stmt 0
  94 0084 23300500 		sd	zero,0(a0)
  15:src/Scheduler.cpp ****         tail = head;
  95              		.loc 1 15 9 is_stmt 1
  15:src/Scheduler.cpp ****         tail = head;
  96              		.loc 1 15 15 is_stmt 0
  97 0088 03B70700 		ld	a4,0(a5)
  15:src/Scheduler.cpp ****         tail = head;
  98              		.loc 1 15 20
  99 008c 23349700 		sd	s1,8(a4)
  16:src/Scheduler.cpp ****     }
 100              		.loc 1 16 9 is_stmt 1
  16:src/Scheduler.cpp ****     }
 101              		.loc 1 16 14 is_stmt 0
 102 0090 23B4E700 		sd	a4,8(a5)
 103 0094 6FF09FFC 		j	.L1
 104              	.LBE4:
 105              		.cfi_endproc
 106              	.LFE1:
 108              		.align	2
 109              		.globl	_ZN9Scheduler3getEv
 111              	_ZN9Scheduler3getEv:
 112              	.LFB2:
  27:src/Scheduler.cpp **** 
  28:src/Scheduler.cpp **** KernelThread *Scheduler::get() {
 113              		.loc 1 28 32 is_stmt 1
 114              		.cfi_startproc
 115 0098 130101FE 		addi	sp,sp,-32
 116              		.cfi_def_cfa_offset 32
 117 009c 233C1100 		sd	ra,24(sp)
 118 00a0 23388100 		sd	s0,16(sp)
 119 00a4 23349100 		sd	s1,8(sp)
 120              		.cfi_offset 1, -8
 121              		.cfi_offset 8, -16
 122              		.cfi_offset 9, -24
 123 00a8 13040102 		addi	s0,sp,32
 124              		.cfi_def_cfa 8, 0
  29:src/Scheduler.cpp ****     if (!head)return KernelThread::idleThread;
 125              		.loc 1 29 5
 126              		.loc 1 29 9 is_stmt 0
 127 00ac 17050000 		ld	a0,.LANCHOR0
 127      03350500 
 128              		.loc 1 29 5
GAS LISTING /tmp/ccHgsLu9.s 			page 4


 129 00b4 630C0502 		beqz	a0,.L11
  30:src/Scheduler.cpp ****     Scheduler::node *tr = head;
 130              		.loc 1 30 5 is_stmt 1
 131              	.LVL9:
  31:src/Scheduler.cpp ****     head = head->next;
 132              		.loc 1 31 5
 133              		.loc 1 31 18 is_stmt 0
 134 00b8 83370500 		ld	a5,0(a0)
 135              		.loc 1 31 10
 136 00bc 17070000 		sd	a5,.LANCHOR0,a4
 136      2330F700 
  32:src/Scheduler.cpp ****     if(!head)tail=nullptr;
 137              		.loc 1 32 5 is_stmt 1
 138 00c4 638C0702 		beqz	a5,.L12
 139              	.L9:
  33:src/Scheduler.cpp ****     KernelThread*ret = tr->info;
 140              		.loc 1 33 5
 141              		.loc 1 33 18 is_stmt 0
 142 00c8 83348500 		ld	s1,8(a0)
 143              	.LVL10:
  34:src/Scheduler.cpp ****     MemoryAllocator::free((void*)tr);
 144              		.loc 1 34 5 is_stmt 1
 145              		.loc 1 34 26 is_stmt 0
 146 00cc 97000000 		call	_ZN15MemoryAllocator4freeEPv@plt
 146      E7800000 
 147              	.LVL11:
  35:src/Scheduler.cpp ****     return ret;
 148              		.loc 1 35 5 is_stmt 1
 149              	.L6:
  36:src/Scheduler.cpp **** }
 150              		.loc 1 36 1 is_stmt 0
 151 00d4 13850400 		mv	a0,s1
 152 00d8 83308101 		ld	ra,24(sp)
 153              		.cfi_remember_state
 154              		.cfi_restore 1
 155 00dc 03340101 		ld	s0,16(sp)
 156              		.cfi_restore 8
 157              		.cfi_def_cfa 2, 32
 158 00e0 83348100 		ld	s1,8(sp)
 159              		.cfi_restore 9
 160 00e4 13010102 		addi	sp,sp,32
 161              		.cfi_def_cfa_offset 0
 162 00e8 67800000 		jr	ra
 163              	.L11:
 164              		.cfi_restore_state
  29:src/Scheduler.cpp ****     Scheduler::node *tr = head;
 165              		.loc 1 29 15 is_stmt 1 discriminator 1
  29:src/Scheduler.cpp ****     Scheduler::node *tr = head;
 166              		.loc 1 29 36 is_stmt 0 discriminator 1
 167 00ec 97070000 		la	a5,_ZN12KernelThread10idleThreadE
 167      83B70700 
 168 00f4 83B40700 		ld	s1,0(a5)
 169 00f8 6FF0DFFD 		j	.L6
 170              	.LVL12:
 171              	.L12:
  32:src/Scheduler.cpp ****     KernelThread*ret = tr->info;
 172              		.loc 1 32 14 is_stmt 1 discriminator 1
GAS LISTING /tmp/ccHgsLu9.s 			page 5


  32:src/Scheduler.cpp ****     KernelThread*ret = tr->info;
 173              		.loc 1 32 18 is_stmt 0 discriminator 1
 174 00fc 97070000 		sd	zero,.LANCHOR0+8,a5
 174      23B00700 
 175 0104 6FF05FFC 		j	.L9
 176              		.cfi_endproc
 177              	.LFE2:
 179              		.align	2
 180              		.globl	_ZN9Scheduler5emptyEv
 182              	_ZN9Scheduler5emptyEv:
 183              	.LFB3:
  37:src/Scheduler.cpp **** 
  38:src/Scheduler.cpp **** bool Scheduler::empty() {
 184              		.loc 1 38 25 is_stmt 1
 185              		.cfi_startproc
 186 0108 130101FF 		addi	sp,sp,-16
 187              		.cfi_def_cfa_offset 16
 188 010c 23348100 		sd	s0,8(sp)
 189              		.cfi_offset 8, -8
 190 0110 13040101 		addi	s0,sp,16
 191              		.cfi_def_cfa 8, 0
  39:src/Scheduler.cpp ****     if(head==nullptr)return true;
 192              		.loc 1 39 5
 193              		.loc 1 39 12 is_stmt 0
 194 0114 97070000 		ld	a5,.LANCHOR0
 194      83B70700 
 195              		.loc 1 39 5
 196 011c 638A0700 		beqz	a5,.L17
  40:src/Scheduler.cpp ****     else return false;
 197              		.loc 1 40 17
 198 0120 13050000 		li	a0,0
 199              	.L14:
  41:src/Scheduler.cpp **** }
 200              		.loc 1 41 1
 201 0124 03348100 		ld	s0,8(sp)
 202              		.cfi_remember_state
 203              		.cfi_restore 8
 204              		.cfi_def_cfa 2, 16
 205 0128 13010101 		addi	sp,sp,16
 206              		.cfi_def_cfa_offset 0
 207 012c 67800000 		jr	ra
 208              	.L17:
 209              		.cfi_restore_state
  39:src/Scheduler.cpp ****     if(head==nullptr)return true;
 210              		.loc 1 39 29
 211 0130 13051000 		li	a0,1
 212 0134 6FF01FFF 		j	.L14
 213              		.cfi_endproc
 214              	.LFE3:
 216              		.globl	_ZN9Scheduler4tailE
 217              		.globl	_ZN9Scheduler4headE
 218              		.bss
 219              		.align	3
 220              		.set	.LANCHOR0,. + 0
 223              	_ZN9Scheduler4headE:
 224 0000 00000000 		.zero	8
 224      00000000 
GAS LISTING /tmp/ccHgsLu9.s 			page 6


 227              	_ZN9Scheduler4tailE:
 228 0008 00000000 		.zero	8
 228      00000000 
 229              		.text
 230              	.Letext0:
 231              		.file 2 "src/../h/../h/../lib/hw.h"
 232              		.file 3 "src/../h/../h/MemoryAllocator.hpp"
 233              		.file 4 "src/../h/Scheduler.hpp"
 234              		.file 5 "src/../test/../h/KernelThread.hpp"
 235              		.file 6 "src/../test/../h/syscall_c.hpp"
GAS LISTING /tmp/ccHgsLu9.s 			page 7

