GAS LISTING /tmp/ccBi0VtT.s 			page 1


   1              		.file	"syscall_cpp.cpp"
   2              		.option pic
   3              		.option norelax
   4              		.text
   5              	.Ltext0:
   6              		.section	.text._ZN6Thread3runEv,"axG",@progbits,_ZN6Thread3runEv,comdat
   7              		.align	2
   8              		.weak	_ZN6Thread3runEv
  10              	_ZN6Thread3runEv:
  11              	.LFB1:
  12              		.file 1 "src/../h/syscall_cpp.hpp"
   1:src/../h/syscall_cpp.hpp **** 
   2:src/../h/syscall_cpp.hpp **** //
   3:src/../h/syscall_cpp.hpp **** // Created by os on 6/26/22.
   4:src/../h/syscall_cpp.hpp **** //
   5:src/../h/syscall_cpp.hpp **** 
   6:src/../h/syscall_cpp.hpp **** #ifndef _syscall_cpp
   7:src/../h/syscall_cpp.hpp **** #define _syscall_cpp
   8:src/../h/syscall_cpp.hpp **** 
   9:src/../h/syscall_cpp.hpp **** #include "syscall_c.hpp"
  10:src/../h/syscall_cpp.hpp **** #include "../lib/hw.h"
  11:src/../h/syscall_cpp.hpp **** 
  12:src/../h/syscall_cpp.hpp **** void *operator new(size_t n);
  13:src/../h/syscall_cpp.hpp **** 
  14:src/../h/syscall_cpp.hpp **** void *operator new[](size_t n);
  15:src/../h/syscall_cpp.hpp **** 
  16:src/../h/syscall_cpp.hpp **** void operator delete(void *p) noexcept;
  17:src/../h/syscall_cpp.hpp **** 
  18:src/../h/syscall_cpp.hpp **** void operator delete[](void *p) noexcept;
  19:src/../h/syscall_cpp.hpp **** 
  20:src/../h/syscall_cpp.hpp **** class Thread {
  21:src/../h/syscall_cpp.hpp **** public:
  22:src/../h/syscall_cpp.hpp ****     Thread (void (*body)(void*), void* arg);
  23:src/../h/syscall_cpp.hpp ****     virtual ~Thread ();
  24:src/../h/syscall_cpp.hpp **** 
  25:src/../h/syscall_cpp.hpp ****     int start ();
  26:src/../h/syscall_cpp.hpp **** 
  27:src/../h/syscall_cpp.hpp ****     static void dispatch ();
  28:src/../h/syscall_cpp.hpp ****     static int sleep (time_t time);
  29:src/../h/syscall_cpp.hpp **** 
  30:src/../h/syscall_cpp.hpp **** protected:
  31:src/../h/syscall_cpp.hpp ****     Thread ();
  32:src/../h/syscall_cpp.hpp ****     virtual void run () {}
  13              		.loc 1 32 18
  14              		.cfi_startproc
  15              	.LVL0:
  16 0000 130101FF 		addi	sp,sp,-16
  17              		.cfi_def_cfa_offset 16
  18 0004 23348100 		sd	s0,8(sp)
  19              		.cfi_offset 8, -8
  20 0008 13040101 		addi	s0,sp,16
  21              		.cfi_def_cfa 8, 0
  22              		.loc 1 32 26 is_stmt 0
  23 000c 03348100 		ld	s0,8(sp)
  24              		.cfi_restore 8
  25              		.cfi_def_cfa 2, 16
  26 0010 13010101 		addi	sp,sp,16
GAS LISTING /tmp/ccBi0VtT.s 			page 2


  27              		.cfi_def_cfa_offset 0
  28 0014 67800000 		jr	ra
  29              		.cfi_endproc
  30              	.LFE1:
  32              		.section	.text._ZN14PeriodicThread18periodicActivationEv,"axG",@progbits,_ZN14PeriodicThread18peri
  33              		.align	2
  34              		.weak	_ZN14PeriodicThread18periodicActivationEv
  36              	_ZN14PeriodicThread18periodicActivationEv:
  37              	.LFB2:
  33:src/../h/syscall_cpp.hpp **** 
  34:src/../h/syscall_cpp.hpp **** private:
  35:src/../h/syscall_cpp.hpp ****     thread_t myHandle;
  36:src/../h/syscall_cpp.hpp **** 
  37:src/../h/syscall_cpp.hpp ****     static void threadWrapper(void*arg);
  38:src/../h/syscall_cpp.hpp **** 
  39:src/../h/syscall_cpp.hpp **** };
  40:src/../h/syscall_cpp.hpp **** 
  41:src/../h/syscall_cpp.hpp **** class Semaphore {
  42:src/../h/syscall_cpp.hpp **** public:
  43:src/../h/syscall_cpp.hpp **** 
  44:src/../h/syscall_cpp.hpp ****     Semaphore (unsigned init = 1);
  45:src/../h/syscall_cpp.hpp ****     virtual ~Semaphore ();
  46:src/../h/syscall_cpp.hpp **** 
  47:src/../h/syscall_cpp.hpp ****     int wait ();
  48:src/../h/syscall_cpp.hpp ****     int signal ();
  49:src/../h/syscall_cpp.hpp **** 
  50:src/../h/syscall_cpp.hpp **** private:
  51:src/../h/syscall_cpp.hpp ****     sem_t myHandle;
  52:src/../h/syscall_cpp.hpp **** 
  53:src/../h/syscall_cpp.hpp **** };
  54:src/../h/syscall_cpp.hpp **** 
  55:src/../h/syscall_cpp.hpp **** class PeriodicThread : public Thread {
  56:src/../h/syscall_cpp.hpp **** protected:
  57:src/../h/syscall_cpp.hpp ****     PeriodicThread (time_t period);
  58:src/../h/syscall_cpp.hpp ****     virtual void periodicActivation () {}
  38              		.loc 1 58 18 is_stmt 1
  39              		.cfi_startproc
  40              	.LVL1:
  41 0000 130101FF 		addi	sp,sp,-16
  42              		.cfi_def_cfa_offset 16
  43 0004 23348100 		sd	s0,8(sp)
  44              		.cfi_offset 8, -8
  45 0008 13040101 		addi	s0,sp,16
  46              		.cfi_def_cfa 8, 0
  47              		.loc 1 58 41 is_stmt 0
  48 000c 03348100 		ld	s0,8(sp)
  49              		.cfi_restore 8
  50              		.cfi_def_cfa 2, 16
  51 0010 13010101 		addi	sp,sp,16
  52              		.cfi_def_cfa_offset 0
  53 0014 67800000 		jr	ra
  54              		.cfi_endproc
  55              	.LFE2:
  57              		.text
  58              		.align	2
  59              		.globl	_ZN6ThreadD2Ev
  61              	_ZN6ThreadD2Ev:
GAS LISTING /tmp/ccBi0VtT.s 			page 3


  62              	.LFB14:
  63              		.file 2 "src/syscall_cpp.cpp"
   1:src/syscall_cpp.cpp **** //
   2:src/syscall_cpp.cpp **** // Created by os on 6/26/22.
   3:src/syscall_cpp.cpp **** //
   4:src/syscall_cpp.cpp **** 
   5:src/syscall_cpp.cpp **** #include "../h/syscall_cpp.hpp"
   6:src/syscall_cpp.cpp **** 
   7:src/syscall_cpp.cpp **** void *operator new(size_t n)
   8:src/syscall_cpp.cpp **** {
   9:src/syscall_cpp.cpp ****     return mem_alloc(n);
  10:src/syscall_cpp.cpp **** }
  11:src/syscall_cpp.cpp **** 
  12:src/syscall_cpp.cpp **** void *operator new[](size_t n)
  13:src/syscall_cpp.cpp **** {
  14:src/syscall_cpp.cpp ****     return mem_alloc(n);
  15:src/syscall_cpp.cpp **** }
  16:src/syscall_cpp.cpp **** 
  17:src/syscall_cpp.cpp **** void operator delete(void *p) noexcept
  18:src/syscall_cpp.cpp **** {
  19:src/syscall_cpp.cpp ****     mem_free(p);
  20:src/syscall_cpp.cpp **** }
  21:src/syscall_cpp.cpp **** 
  22:src/syscall_cpp.cpp **** void operator delete[](void *p) noexcept
  23:src/syscall_cpp.cpp **** {
  24:src/syscall_cpp.cpp ****     mem_free(p);
  25:src/syscall_cpp.cpp **** }
  26:src/syscall_cpp.cpp **** 
  27:src/syscall_cpp.cpp **** Thread::Thread(void (*body)(void *), void *arg) {
  28:src/syscall_cpp.cpp ****     thread_create_v2(&myHandle,body,arg);
  29:src/syscall_cpp.cpp **** }
  30:src/syscall_cpp.cpp **** 
  31:src/syscall_cpp.cpp **** Thread::~Thread(){
  64              		.loc 2 31 1 is_stmt 1
  65              		.cfi_startproc
  66              	.LVL2:
  67 0000 130101FF 		addi	sp,sp,-16
  68              		.cfi_def_cfa_offset 16
  69 0004 23348100 		sd	s0,8(sp)
  70              		.cfi_offset 8, -8
  71 0008 13040101 		addi	s0,sp,16
  72              		.cfi_def_cfa 8, 0
  32:src/syscall_cpp.cpp ****    // delete myHandle;
  33:src/syscall_cpp.cpp **** }
  73              		.loc 2 33 1 is_stmt 0
  74 000c 03348100 		ld	s0,8(sp)
  75              		.cfi_restore 8
  76              		.cfi_def_cfa 2, 16
  77 0010 13010101 		addi	sp,sp,16
  78              		.cfi_def_cfa_offset 0
  79 0014 67800000 		jr	ra
  80              		.cfi_endproc
  81              	.LFE14:
  83              		.globl	_ZN6ThreadD1Ev
  84              		.set	_ZN6ThreadD1Ev,_ZN6ThreadD2Ev
  85              		.align	2
  86              		.globl	_ZN6Thread13threadWrapperEPv
GAS LISTING /tmp/ccBi0VtT.s 			page 4


  88              	_ZN6Thread13threadWrapperEPv:
  89              	.LFB23:
  34:src/syscall_cpp.cpp **** 
  35:src/syscall_cpp.cpp **** int Thread::start() {
  36:src/syscall_cpp.cpp ****     return thread_start(myHandle);
  37:src/syscall_cpp.cpp **** }
  38:src/syscall_cpp.cpp **** 
  39:src/syscall_cpp.cpp **** void Thread::dispatch() {
  40:src/syscall_cpp.cpp ****     thread_dispatch();
  41:src/syscall_cpp.cpp **** }
  42:src/syscall_cpp.cpp **** 
  43:src/syscall_cpp.cpp **** int Thread::sleep(time_t time) {
  44:src/syscall_cpp.cpp ****     return time_sleep(time);
  45:src/syscall_cpp.cpp **** }
  46:src/syscall_cpp.cpp **** 
  47:src/syscall_cpp.cpp **** Thread::Thread() : Thread(threadWrapper,(void*)this){
  48:src/syscall_cpp.cpp **** }
  49:src/syscall_cpp.cpp **** 
  50:src/syscall_cpp.cpp **** void Thread::threadWrapper(void *arg) {
  90              		.loc 2 50 39 is_stmt 1
  91              		.cfi_startproc
  92              	.LVL3:
  93 0018 130101FF 		addi	sp,sp,-16
  94              		.cfi_def_cfa_offset 16
  95 001c 23341100 		sd	ra,8(sp)
  96 0020 23308100 		sd	s0,0(sp)
  97              		.cfi_offset 1, -8
  98              		.cfi_offset 8, -16
  99 0024 13040101 		addi	s0,sp,16
 100              		.cfi_def_cfa 8, 0
  51:src/syscall_cpp.cpp ****     Thread*t;
 101              		.loc 2 51 5
  52:src/syscall_cpp.cpp ****     t = (Thread*)arg;
 102              		.loc 2 52 5
 103              	.LVL4:
  53:src/syscall_cpp.cpp ****     t->run();
 104              		.loc 2 53 5
 105              		.loc 2 53 12 is_stmt 0
 106 0028 83370500 		ld	a5,0(a0)
 107 002c 83B70701 		ld	a5,16(a5)
 108              		.loc 2 53 11
 109 0030 E7800700 		jalr	a5
 110              	.LVL5:
  54:src/syscall_cpp.cpp **** }
 111              		.loc 2 54 1
 112 0034 83308100 		ld	ra,8(sp)
 113              		.cfi_restore 1
 114 0038 03340100 		ld	s0,0(sp)
 115              		.cfi_restore 8
 116              		.cfi_def_cfa 2, 16
 117 003c 13010101 		addi	sp,sp,16
 118              		.cfi_def_cfa_offset 0
 119 0040 67800000 		jr	ra
 120              		.cfi_endproc
 121              	.LFE23:
 123              		.section	.text._ZN14PeriodicThreadD2Ev,"axG",@progbits,_ZN14PeriodicThreadD5Ev,comdat
 124              		.align	2
GAS LISTING /tmp/ccBi0VtT.s 			page 5


 125              		.weak	_ZN14PeriodicThreadD2Ev
 127              	_ZN14PeriodicThreadD2Ev:
 128              	.LFB40:
  55:src/../h/syscall_cpp.hpp **** protected:
 129              		.loc 1 55 7 is_stmt 1
 130              		.cfi_startproc
 131              	.LVL6:
 132 0000 130101FF 		addi	sp,sp,-16
 133              		.cfi_def_cfa_offset 16
 134 0004 23348100 		sd	s0,8(sp)
 135              		.cfi_offset 8, -8
 136 0008 13040101 		addi	s0,sp,16
 137              		.cfi_def_cfa 8, 0
 138              	.LBB9:
  55:src/../h/syscall_cpp.hpp **** protected:
 139              		.loc 1 55 7 is_stmt 0
 140 000c 97070000 		lla	a5,_ZTV14PeriodicThread+16
 140      93870700 
 141 0014 2330F500 		sd	a5,0(a0)
 142              	.LBE9:
 143 0018 03348100 		ld	s0,8(sp)
 144              		.cfi_restore 8
 145              		.cfi_def_cfa 2, 16
 146 001c 13010101 		addi	sp,sp,16
 147              		.cfi_def_cfa_offset 0
 148 0020 67800000 		jr	ra
 149              		.cfi_endproc
 150              	.LFE40:
 152              		.weak	_ZN14PeriodicThreadD1Ev
 153              		.set	_ZN14PeriodicThreadD1Ev,_ZN14PeriodicThreadD2Ev
 154              		.text
 155              		.align	2
 156              		.globl	_ZN14PeriodicThread21periodicThreadWrapperEPv
 158              	_ZN14PeriodicThread21periodicThreadWrapperEPv:
 159              	.LFB36:
  55:src/syscall_cpp.cpp **** 
  56:src/syscall_cpp.cpp **** Semaphore::Semaphore(unsigned int init) {
  57:src/syscall_cpp.cpp ****     sem_open(&myHandle,init);
  58:src/syscall_cpp.cpp **** }
  59:src/syscall_cpp.cpp **** 
  60:src/syscall_cpp.cpp **** Semaphore::~Semaphore() {
  61:src/syscall_cpp.cpp ****     sem_close(myHandle);
  62:src/syscall_cpp.cpp **** }
  63:src/syscall_cpp.cpp **** 
  64:src/syscall_cpp.cpp **** int Semaphore::wait() {
  65:src/syscall_cpp.cpp ****     return sem_wait(myHandle);
  66:src/syscall_cpp.cpp **** }
  67:src/syscall_cpp.cpp **** 
  68:src/syscall_cpp.cpp **** int Semaphore::signal() {
  69:src/syscall_cpp.cpp ****     return sem_signal(myHandle);
  70:src/syscall_cpp.cpp **** }
  71:src/syscall_cpp.cpp **** 
  72:src/syscall_cpp.cpp **** PeriodicThread::PeriodicThread(time_t period) : Thread(periodicThreadWrapper, (void*)(new periodic(
  73:src/syscall_cpp.cpp **** }
  74:src/syscall_cpp.cpp **** 
  75:src/syscall_cpp.cpp **** void PeriodicThread::periodicThreadWrapper(void *arg) {
 160              		.loc 2 75 55 is_stmt 1
GAS LISTING /tmp/ccBi0VtT.s 			page 6


 161              		.cfi_startproc
 162              	.LVL7:
 163 0044 130101FE 		addi	sp,sp,-32
 164              		.cfi_def_cfa_offset 32
 165 0048 233C1100 		sd	ra,24(sp)
 166 004c 23388100 		sd	s0,16(sp)
 167 0050 23349100 		sd	s1,8(sp)
 168              		.cfi_offset 1, -8
 169              		.cfi_offset 8, -16
 170              		.cfi_offset 9, -24
 171 0054 13040102 		addi	s0,sp,32
 172              		.cfi_def_cfa 8, 0
 173 0058 93040500 		mv	s1,a0
  76:src/syscall_cpp.cpp ****     periodic* s;
 174              		.loc 2 76 5
  77:src/syscall_cpp.cpp ****     s = (periodic*)arg;
 175              		.loc 2 77 5
 176              	.LVL8:
 177              	.L12:
  78:src/syscall_cpp.cpp ****     while(true){
 178              		.loc 2 78 5 discriminator 1
  79:src/syscall_cpp.cpp ****         s->thread->periodicActivation();
 179              		.loc 2 79 9 discriminator 1
 180              		.loc 2 79 12 is_stmt 0 discriminator 1
 181 005c 03B58400 		ld	a0,8(s1)
 182              		.loc 2 79 39 discriminator 1
 183 0060 83370500 		ld	a5,0(a0)
 184 0064 83B78701 		ld	a5,24(a5)
 185              		.loc 2 79 38 discriminator 1
 186 0068 E7800700 		jalr	a5
 187              	.LVL9:
  80:src/syscall_cpp.cpp ****         time_sleep(s->period);
 188              		.loc 2 80 9 is_stmt 1 discriminator 1
 189              		.loc 2 80 19 is_stmt 0 discriminator 1
 190 006c 03B50400 		ld	a0,0(s1)
 191 0070 97000000 		call	_Z10time_sleepm@plt
 191      E7800000 
 192              	.LVL10:
  78:src/syscall_cpp.cpp ****     while(true){
 193              		.loc 2 78 5 is_stmt 1 discriminator 1
 194 0078 6FF05FFE 		j	.L12
 195              		.cfi_endproc
 196              	.LFE36:
 198              		.align	2
 199              		.globl	_ZN9SemaphoreD2Ev
 201              	_ZN9SemaphoreD2Ev:
 202              	.LFB28:
  60:src/syscall_cpp.cpp ****     sem_close(myHandle);
 203              		.loc 2 60 1
 204              		.cfi_startproc
 205              		.cfi_personality 0x9b,DW.ref.__gxx_personality_v0
 206              		.cfi_lsda 0x1b,.LLSDA28
 207              	.LVL11:
 208 007c 130101FF 		addi	sp,sp,-16
 209              		.cfi_def_cfa_offset 16
 210 0080 23341100 		sd	ra,8(sp)
 211 0084 23308100 		sd	s0,0(sp)
GAS LISTING /tmp/ccBi0VtT.s 			page 7


 212              		.cfi_offset 1, -8
 213              		.cfi_offset 8, -16
 214 0088 13040101 		addi	s0,sp,16
 215              		.cfi_def_cfa 8, 0
 216              	.LBB10:
  60:src/syscall_cpp.cpp ****     sem_close(myHandle);
 217              		.loc 2 60 23 is_stmt 0
 218 008c 97070000 		lla	a5,_ZTV9Semaphore+16
 218      93870700 
 219 0094 2330F500 		sd	a5,0(a0)
  61:src/syscall_cpp.cpp **** }
 220              		.loc 2 61 5 is_stmt 1
  61:src/syscall_cpp.cpp **** }
 221              		.loc 2 61 14 is_stmt 0
 222 0098 03358500 		ld	a0,8(a0)
 223              	.LVL12:
 224 009c 97000000 		call	_Z9sem_closeP15KernelSemaphore@plt
 224      E7800000 
 225              	.LVL13:
 226              	.LBE10:
  62:src/syscall_cpp.cpp **** 
 227              		.loc 2 62 1
 228 00a4 83308100 		ld	ra,8(sp)
 229              		.cfi_restore 1
 230 00a8 03340100 		ld	s0,0(sp)
 231              		.cfi_restore 8
 232              		.cfi_def_cfa 2, 16
 233 00ac 13010101 		addi	sp,sp,16
 234              		.cfi_def_cfa_offset 0
 235 00b0 67800000 		jr	ra
 236              		.cfi_endproc
 237              	.LFE28:
 238              		.globl	__gxx_personality_v0
 239              		.section	.gcc_except_table,"a",@progbits
 240              	.LLSDA28:
 241 0000 FF       		.byte	0xff
 242 0001 FF       		.byte	0xff
 243 0002 03       		.byte	0x3
 244 0003 00       		.byte	0
 245              		.text
 247              		.globl	_ZN9SemaphoreD1Ev
 248              		.set	_ZN9SemaphoreD1Ev,_ZN9SemaphoreD2Ev
 249              		.align	2
 250              		.globl	_Znwm
 252              	_Znwm:
 253              	.LFB6:
   8:src/syscall_cpp.cpp ****     return mem_alloc(n);
 254              		.loc 2 8 1 is_stmt 1
 255              		.cfi_startproc
 256              	.LVL14:
 257 00b4 130101FF 		addi	sp,sp,-16
 258              		.cfi_def_cfa_offset 16
 259 00b8 23341100 		sd	ra,8(sp)
 260 00bc 23308100 		sd	s0,0(sp)
 261              		.cfi_offset 1, -8
 262              		.cfi_offset 8, -16
 263 00c0 13040101 		addi	s0,sp,16
GAS LISTING /tmp/ccBi0VtT.s 			page 8


 264              		.cfi_def_cfa 8, 0
   9:src/syscall_cpp.cpp **** }
 265              		.loc 2 9 5
   9:src/syscall_cpp.cpp **** }
 266              		.loc 2 9 21 is_stmt 0
 267 00c4 97000000 		call	_Z9mem_allocm@plt
 267      E7800000 
 268              	.LVL15:
  10:src/syscall_cpp.cpp **** 
 269              		.loc 2 10 1
 270 00cc 83308100 		ld	ra,8(sp)
 271              		.cfi_restore 1
 272 00d0 03340100 		ld	s0,0(sp)
 273              		.cfi_restore 8
 274              		.cfi_def_cfa 2, 16
 275 00d4 13010101 		addi	sp,sp,16
 276              		.cfi_def_cfa_offset 0
 277 00d8 67800000 		jr	ra
 278              		.cfi_endproc
 279              	.LFE6:
 281              		.align	2
 282              		.globl	_Znam
 284              	_Znam:
 285              	.LFB7:
  13:src/syscall_cpp.cpp ****     return mem_alloc(n);
 286              		.loc 2 13 1 is_stmt 1
 287              		.cfi_startproc
 288              	.LVL16:
 289 00dc 130101FF 		addi	sp,sp,-16
 290              		.cfi_def_cfa_offset 16
 291 00e0 23341100 		sd	ra,8(sp)
 292 00e4 23308100 		sd	s0,0(sp)
 293              		.cfi_offset 1, -8
 294              		.cfi_offset 8, -16
 295 00e8 13040101 		addi	s0,sp,16
 296              		.cfi_def_cfa 8, 0
  14:src/syscall_cpp.cpp **** }
 297              		.loc 2 14 5
  14:src/syscall_cpp.cpp **** }
 298              		.loc 2 14 21 is_stmt 0
 299 00ec 97000000 		call	_Z9mem_allocm@plt
 299      E7800000 
 300              	.LVL17:
  15:src/syscall_cpp.cpp **** 
 301              		.loc 2 15 1
 302 00f4 83308100 		ld	ra,8(sp)
 303              		.cfi_restore 1
 304 00f8 03340100 		ld	s0,0(sp)
 305              		.cfi_restore 8
 306              		.cfi_def_cfa 2, 16
 307 00fc 13010101 		addi	sp,sp,16
 308              		.cfi_def_cfa_offset 0
 309 0100 67800000 		jr	ra
 310              		.cfi_endproc
 311              	.LFE7:
 313              		.align	2
 314              		.globl	_ZdlPv
GAS LISTING /tmp/ccBi0VtT.s 			page 9


 316              	_ZdlPv:
 317              	.LFB8:
  18:src/syscall_cpp.cpp ****     mem_free(p);
 318              		.loc 2 18 1 is_stmt 1
 319              		.cfi_startproc
 320              		.cfi_personality 0x9b,DW.ref.__gxx_personality_v0
 321              		.cfi_lsda 0x1b,.LLSDA8
 322              	.LVL18:
 323 0104 130101FF 		addi	sp,sp,-16
 324              		.cfi_def_cfa_offset 16
 325 0108 23341100 		sd	ra,8(sp)
 326 010c 23308100 		sd	s0,0(sp)
 327              		.cfi_offset 1, -8
 328              		.cfi_offset 8, -16
 329 0110 13040101 		addi	s0,sp,16
 330              		.cfi_def_cfa 8, 0
  19:src/syscall_cpp.cpp **** }
 331              		.loc 2 19 5
  19:src/syscall_cpp.cpp **** }
 332              		.loc 2 19 13 is_stmt 0
 333 0114 97000000 		call	_Z8mem_freePv@plt
 333      E7800000 
 334              	.LVL19:
  20:src/syscall_cpp.cpp **** 
 335              		.loc 2 20 1
 336 011c 83308100 		ld	ra,8(sp)
 337              		.cfi_restore 1
 338 0120 03340100 		ld	s0,0(sp)
 339              		.cfi_restore 8
 340              		.cfi_def_cfa 2, 16
 341 0124 13010101 		addi	sp,sp,16
 342              		.cfi_def_cfa_offset 0
 343 0128 67800000 		jr	ra
 344              		.cfi_endproc
 345              	.LFE8:
 346              		.section	.gcc_except_table
 347              	.LLSDA8:
 348 0004 FF       		.byte	0xff
 349 0005 FF       		.byte	0xff
 350 0006 03       		.byte	0x3
 351 0007 00       		.byte	0
 352              		.text
 354              		.align	2
 355              		.globl	_ZN6ThreadD0Ev
 357              	_ZN6ThreadD0Ev:
 358              	.LFB16:
  31:src/syscall_cpp.cpp ****    // delete myHandle;
 359              		.loc 2 31 1 is_stmt 1
 360              		.cfi_startproc
 361              	.LVL20:
 362 012c 130101FF 		addi	sp,sp,-16
 363              		.cfi_def_cfa_offset 16
 364 0130 23341100 		sd	ra,8(sp)
 365 0134 23308100 		sd	s0,0(sp)
 366              		.cfi_offset 1, -8
 367              		.cfi_offset 8, -16
 368 0138 13040101 		addi	s0,sp,16
GAS LISTING /tmp/ccBi0VtT.s 			page 10


 369              		.cfi_def_cfa 8, 0
  33:src/syscall_cpp.cpp **** 
 370              		.loc 2 33 1 is_stmt 0
 371 013c 97000000 		call	_ZdlPv
 371      E7800000 
 372              	.LVL21:
 373 0144 83308100 		ld	ra,8(sp)
 374              		.cfi_restore 1
 375 0148 03340100 		ld	s0,0(sp)
 376              		.cfi_restore 8
 377              		.cfi_def_cfa 2, 16
 378 014c 13010101 		addi	sp,sp,16
 379              		.cfi_def_cfa_offset 0
 380 0150 67800000 		jr	ra
 381              		.cfi_endproc
 382              	.LFE16:
 384              		.align	2
 385              		.globl	_ZN9SemaphoreD0Ev
 387              	_ZN9SemaphoreD0Ev:
 388              	.LFB30:
  60:src/syscall_cpp.cpp ****     sem_close(myHandle);
 389              		.loc 2 60 1 is_stmt 1
 390              		.cfi_startproc
 391              	.LVL22:
 392 0154 130101FE 		addi	sp,sp,-32
 393              		.cfi_def_cfa_offset 32
 394 0158 233C1100 		sd	ra,24(sp)
 395 015c 23388100 		sd	s0,16(sp)
 396 0160 23349100 		sd	s1,8(sp)
 397              		.cfi_offset 1, -8
 398              		.cfi_offset 8, -16
 399              		.cfi_offset 9, -24
 400 0164 13040102 		addi	s0,sp,32
 401              		.cfi_def_cfa 8, 0
 402 0168 93040500 		mv	s1,a0
  62:src/syscall_cpp.cpp **** 
 403              		.loc 2 62 1 is_stmt 0
 404 016c 97000000 		call	_ZN9SemaphoreD1Ev
 404      E7800000 
 405              	.LVL23:
 406 0174 13850400 		mv	a0,s1
 407 0178 97000000 		call	_ZdlPv
 407      E7800000 
 408              	.LVL24:
 409 0180 83308101 		ld	ra,24(sp)
 410              		.cfi_restore 1
 411 0184 03340101 		ld	s0,16(sp)
 412              		.cfi_restore 8
 413              		.cfi_def_cfa 2, 32
 414 0188 83348100 		ld	s1,8(sp)
 415              		.cfi_restore 9
 416              	.LVL25:
 417 018c 13010102 		addi	sp,sp,32
 418              		.cfi_def_cfa_offset 0
 419 0190 67800000 		jr	ra
 420              		.cfi_endproc
 421              	.LFE30:
GAS LISTING /tmp/ccBi0VtT.s 			page 11


 423              		.section	.text._ZN14PeriodicThreadD0Ev,"axG",@progbits,_ZN14PeriodicThreadD5Ev,comdat
 424              		.align	2
 425              		.weak	_ZN14PeriodicThreadD0Ev
 427              	_ZN14PeriodicThreadD0Ev:
 428              	.LFB42:
  55:src/../h/syscall_cpp.hpp **** protected:
 429              		.loc 1 55 7 is_stmt 1
 430              		.cfi_startproc
 431              	.LVL26:
 432 0000 130101FF 		addi	sp,sp,-16
 433              		.cfi_def_cfa_offset 16
 434 0004 23341100 		sd	ra,8(sp)
 435 0008 23308100 		sd	s0,0(sp)
 436              		.cfi_offset 1, -8
 437              		.cfi_offset 8, -16
 438 000c 13040101 		addi	s0,sp,16
 439              		.cfi_def_cfa 8, 0
 440              	.LVL27:
 441              	.LBB11:
 442              	.LBB12:
  55:src/../h/syscall_cpp.hpp **** protected:
 443              		.loc 1 55 7 is_stmt 0
 444 0010 97070000 		lla	a5,_ZTV14PeriodicThread+16
 444      93870700 
 445 0018 2330F500 		sd	a5,0(a0)
 446              	.LVL28:
 447              	.LBE12:
 448              	.LBE11:
 449 001c 97000000 		call	_ZdlPv
 449      E7800000 
 450              	.LVL29:
 451 0024 83308100 		ld	ra,8(sp)
 452              		.cfi_restore 1
 453 0028 03340100 		ld	s0,0(sp)
 454              		.cfi_restore 8
 455              		.cfi_def_cfa 2, 16
 456 002c 13010101 		addi	sp,sp,16
 457              		.cfi_def_cfa_offset 0
 458 0030 67800000 		jr	ra
 459              		.cfi_endproc
 460              	.LFE42:
 462              		.text
 463              		.align	2
 464              		.globl	_ZdaPv
 466              	_ZdaPv:
 467              	.LFB9:
  23:src/syscall_cpp.cpp ****     mem_free(p);
 468              		.loc 2 23 1 is_stmt 1
 469              		.cfi_startproc
 470              		.cfi_personality 0x9b,DW.ref.__gxx_personality_v0
 471              		.cfi_lsda 0x1b,.LLSDA9
 472              	.LVL30:
 473 0194 130101FF 		addi	sp,sp,-16
 474              		.cfi_def_cfa_offset 16
 475 0198 23341100 		sd	ra,8(sp)
 476 019c 23308100 		sd	s0,0(sp)
 477              		.cfi_offset 1, -8
GAS LISTING /tmp/ccBi0VtT.s 			page 12


 478              		.cfi_offset 8, -16
 479 01a0 13040101 		addi	s0,sp,16
 480              		.cfi_def_cfa 8, 0
  24:src/syscall_cpp.cpp **** }
 481              		.loc 2 24 5
  24:src/syscall_cpp.cpp **** }
 482              		.loc 2 24 13 is_stmt 0
 483 01a4 97000000 		call	_Z8mem_freePv@plt
 483      E7800000 
 484              	.LVL31:
  25:src/syscall_cpp.cpp **** 
 485              		.loc 2 25 1
 486 01ac 83308100 		ld	ra,8(sp)
 487              		.cfi_restore 1
 488 01b0 03340100 		ld	s0,0(sp)
 489              		.cfi_restore 8
 490              		.cfi_def_cfa 2, 16
 491 01b4 13010101 		addi	sp,sp,16
 492              		.cfi_def_cfa_offset 0
 493 01b8 67800000 		jr	ra
 494              		.cfi_endproc
 495              	.LFE9:
 496              		.section	.gcc_except_table
 497              	.LLSDA9:
 498 0008 FF       		.byte	0xff
 499 0009 FF       		.byte	0xff
 500 000a 03       		.byte	0x3
 501 000b 00       		.byte	0
 502              		.text
 504              		.align	2
 505              		.globl	_ZN6ThreadC2EPFvPvES0_
 507              	_ZN6ThreadC2EPFvPvES0_:
 508              	.LFB11:
  27:src/syscall_cpp.cpp ****     thread_create_v2(&myHandle,body,arg);
 509              		.loc 2 27 1 is_stmt 1
 510              		.cfi_startproc
 511              	.LVL32:
 512 01bc 130101FF 		addi	sp,sp,-16
 513              		.cfi_def_cfa_offset 16
 514 01c0 23341100 		sd	ra,8(sp)
 515 01c4 23308100 		sd	s0,0(sp)
 516              		.cfi_offset 1, -8
 517              		.cfi_offset 8, -16
 518 01c8 13040101 		addi	s0,sp,16
 519              		.cfi_def_cfa 8, 0
 520              	.LBB13:
  27:src/syscall_cpp.cpp ****     thread_create_v2(&myHandle,body,arg);
 521              		.loc 2 27 47 is_stmt 0
 522 01cc 97070000 		lla	a5,_ZTV6Thread+16
 522      93870700 
 523 01d4 2330F500 		sd	a5,0(a0)
  28:src/syscall_cpp.cpp **** }
 524              		.loc 2 28 5 is_stmt 1
  28:src/syscall_cpp.cpp **** }
 525              		.loc 2 28 21 is_stmt 0
 526 01d8 13058500 		addi	a0,a0,8
 527              	.LVL33:
GAS LISTING /tmp/ccBi0VtT.s 			page 13


 528 01dc 97000000 		call	_Z16thread_create_v2PP12KernelThreadPFvPvES2_@plt
 528      E7800000 
 529              	.LVL34:
 530              	.LBE13:
  29:src/syscall_cpp.cpp **** 
 531              		.loc 2 29 1
 532 01e4 83308100 		ld	ra,8(sp)
 533              		.cfi_restore 1
 534 01e8 03340100 		ld	s0,0(sp)
 535              		.cfi_restore 8
 536              		.cfi_def_cfa 2, 16
 537 01ec 13010101 		addi	sp,sp,16
 538              		.cfi_def_cfa_offset 0
 539 01f0 67800000 		jr	ra
 540              		.cfi_endproc
 541              	.LFE11:
 543              		.globl	_ZN6ThreadC1EPFvPvES0_
 544              		.set	_ZN6ThreadC1EPFvPvES0_,_ZN6ThreadC2EPFvPvES0_
 545              		.align	2
 546              		.globl	_ZN6Thread5startEv
 548              	_ZN6Thread5startEv:
 549              	.LFB17:
  35:src/syscall_cpp.cpp ****     return thread_start(myHandle);
 550              		.loc 2 35 21 is_stmt 1
 551              		.cfi_startproc
 552              	.LVL35:
 553 01f4 130101FF 		addi	sp,sp,-16
 554              		.cfi_def_cfa_offset 16
 555 01f8 23341100 		sd	ra,8(sp)
 556 01fc 23308100 		sd	s0,0(sp)
 557              		.cfi_offset 1, -8
 558              		.cfi_offset 8, -16
 559 0200 13040101 		addi	s0,sp,16
 560              		.cfi_def_cfa 8, 0
  36:src/syscall_cpp.cpp **** }
 561              		.loc 2 36 5
  36:src/syscall_cpp.cpp **** }
 562              		.loc 2 36 24 is_stmt 0
 563 0204 03358500 		ld	a0,8(a0)
 564              	.LVL36:
 565 0208 97000000 		call	_Z12thread_startP12KernelThread@plt
 565      E7800000 
 566              	.LVL37:
  37:src/syscall_cpp.cpp **** 
 567              		.loc 2 37 1
 568 0210 83308100 		ld	ra,8(sp)
 569              		.cfi_restore 1
 570 0214 03340100 		ld	s0,0(sp)
 571              		.cfi_restore 8
 572              		.cfi_def_cfa 2, 16
 573 0218 13010101 		addi	sp,sp,16
 574              		.cfi_def_cfa_offset 0
 575 021c 67800000 		jr	ra
 576              		.cfi_endproc
 577              	.LFE17:
 579              		.align	2
 580              		.globl	_ZN6Thread8dispatchEv
GAS LISTING /tmp/ccBi0VtT.s 			page 14


 582              	_ZN6Thread8dispatchEv:
 583              	.LFB18:
  39:src/syscall_cpp.cpp ****     thread_dispatch();
 584              		.loc 2 39 25 is_stmt 1
 585              		.cfi_startproc
 586 0220 130101FF 		addi	sp,sp,-16
 587              		.cfi_def_cfa_offset 16
 588 0224 23341100 		sd	ra,8(sp)
 589 0228 23308100 		sd	s0,0(sp)
 590              		.cfi_offset 1, -8
 591              		.cfi_offset 8, -16
 592 022c 13040101 		addi	s0,sp,16
 593              		.cfi_def_cfa 8, 0
  40:src/syscall_cpp.cpp **** }
 594              		.loc 2 40 5
  40:src/syscall_cpp.cpp **** }
 595              		.loc 2 40 20 is_stmt 0
 596 0230 97000000 		call	_Z15thread_dispatchv@plt
 596      E7800000 
 597              	.LVL38:
  41:src/syscall_cpp.cpp **** 
 598              		.loc 2 41 1
 599 0238 83308100 		ld	ra,8(sp)
 600              		.cfi_restore 1
 601 023c 03340100 		ld	s0,0(sp)
 602              		.cfi_restore 8
 603              		.cfi_def_cfa 2, 16
 604 0240 13010101 		addi	sp,sp,16
 605              		.cfi_def_cfa_offset 0
 606 0244 67800000 		jr	ra
 607              		.cfi_endproc
 608              	.LFE18:
 610              		.align	2
 611              		.globl	_ZN6Thread5sleepEm
 613              	_ZN6Thread5sleepEm:
 614              	.LFB19:
  43:src/syscall_cpp.cpp ****     return time_sleep(time);
 615              		.loc 2 43 32 is_stmt 1
 616              		.cfi_startproc
 617              	.LVL39:
 618 0248 130101FF 		addi	sp,sp,-16
 619              		.cfi_def_cfa_offset 16
 620 024c 23341100 		sd	ra,8(sp)
 621 0250 23308100 		sd	s0,0(sp)
 622              		.cfi_offset 1, -8
 623              		.cfi_offset 8, -16
 624 0254 13040101 		addi	s0,sp,16
 625              		.cfi_def_cfa 8, 0
  44:src/syscall_cpp.cpp **** }
 626              		.loc 2 44 5
  44:src/syscall_cpp.cpp **** }
 627              		.loc 2 44 22 is_stmt 0
 628 0258 97000000 		call	_Z10time_sleepm@plt
 628      E7800000 
 629              	.LVL40:
  45:src/syscall_cpp.cpp **** 
 630              		.loc 2 45 1
GAS LISTING /tmp/ccBi0VtT.s 			page 15


 631 0260 83308100 		ld	ra,8(sp)
 632              		.cfi_restore 1
 633 0264 03340100 		ld	s0,0(sp)
 634              		.cfi_restore 8
 635              		.cfi_def_cfa 2, 16
 636 0268 13010101 		addi	sp,sp,16
 637              		.cfi_def_cfa_offset 0
 638 026c 67800000 		jr	ra
 639              		.cfi_endproc
 640              	.LFE19:
 642              		.align	2
 643              		.globl	_ZN6ThreadC2Ev
 645              	_ZN6ThreadC2Ev:
 646              	.LFB21:
  47:src/syscall_cpp.cpp **** }
 647              		.loc 2 47 1 is_stmt 1
 648              		.cfi_startproc
 649              	.LVL41:
 650 0270 130101FF 		addi	sp,sp,-16
 651              		.cfi_def_cfa_offset 16
 652 0274 23341100 		sd	ra,8(sp)
 653 0278 23308100 		sd	s0,0(sp)
 654              		.cfi_offset 1, -8
 655              		.cfi_offset 8, -16
 656 027c 13040101 		addi	s0,sp,16
 657              		.cfi_def_cfa 8, 0
 658 0280 13060500 		mv	a2,a0
 659              	.LBB14:
  47:src/syscall_cpp.cpp **** }
 660              		.loc 2 47 52 is_stmt 0
 661 0284 97050000 		lla	a1,_ZN6Thread13threadWrapperEPv
 661      93850500 
 662 028c 97000000 		call	_ZN6ThreadC1EPFvPvES0_
 662      E7800000 
 663              	.LVL42:
 664              	.LBE14:
  48:src/syscall_cpp.cpp **** 
 665              		.loc 2 48 1
 666 0294 83308100 		ld	ra,8(sp)
 667              		.cfi_restore 1
 668 0298 03340100 		ld	s0,0(sp)
 669              		.cfi_restore 8
 670              		.cfi_def_cfa 2, 16
 671 029c 13010101 		addi	sp,sp,16
 672              		.cfi_def_cfa_offset 0
 673 02a0 67800000 		jr	ra
 674              		.cfi_endproc
 675              	.LFE21:
 677              		.globl	_ZN6ThreadC1Ev
 678              		.set	_ZN6ThreadC1Ev,_ZN6ThreadC2Ev
 679              		.align	2
 680              		.globl	_ZN9SemaphoreC2Ej
 682              	_ZN9SemaphoreC2Ej:
 683              	.LFB25:
  56:src/syscall_cpp.cpp ****     sem_open(&myHandle,init);
 684              		.loc 2 56 1 is_stmt 1
 685              		.cfi_startproc
GAS LISTING /tmp/ccBi0VtT.s 			page 16


 686              	.LVL43:
 687 02a4 130101FF 		addi	sp,sp,-16
 688              		.cfi_def_cfa_offset 16
 689 02a8 23341100 		sd	ra,8(sp)
 690 02ac 23308100 		sd	s0,0(sp)
 691              		.cfi_offset 1, -8
 692              		.cfi_offset 8, -16
 693 02b0 13040101 		addi	s0,sp,16
 694              		.cfi_def_cfa 8, 0
 695              	.LBB15:
  56:src/syscall_cpp.cpp ****     sem_open(&myHandle,init);
 696              		.loc 2 56 39 is_stmt 0
 697 02b4 97070000 		lla	a5,_ZTV9Semaphore+16
 697      93870700 
 698 02bc 2330F500 		sd	a5,0(a0)
  57:src/syscall_cpp.cpp **** }
 699              		.loc 2 57 5 is_stmt 1
  57:src/syscall_cpp.cpp **** }
 700              		.loc 2 57 13 is_stmt 0
 701 02c0 13058500 		addi	a0,a0,8
 702              	.LVL44:
 703 02c4 97000000 		call	_Z8sem_openPP15KernelSemaphorej@plt
 703      E7800000 
 704              	.LVL45:
 705              	.LBE15:
  58:src/syscall_cpp.cpp **** 
 706              		.loc 2 58 1
 707 02cc 83308100 		ld	ra,8(sp)
 708              		.cfi_restore 1
 709 02d0 03340100 		ld	s0,0(sp)
 710              		.cfi_restore 8
 711              		.cfi_def_cfa 2, 16
 712 02d4 13010101 		addi	sp,sp,16
 713              		.cfi_def_cfa_offset 0
 714 02d8 67800000 		jr	ra
 715              		.cfi_endproc
 716              	.LFE25:
 718              		.globl	_ZN9SemaphoreC1Ej
 719              		.set	_ZN9SemaphoreC1Ej,_ZN9SemaphoreC2Ej
 720              		.align	2
 721              		.globl	_ZN9Semaphore4waitEv
 723              	_ZN9Semaphore4waitEv:
 724              	.LFB31:
  64:src/syscall_cpp.cpp ****     return sem_wait(myHandle);
 725              		.loc 2 64 23 is_stmt 1
 726              		.cfi_startproc
 727              	.LVL46:
 728 02dc 130101FF 		addi	sp,sp,-16
 729              		.cfi_def_cfa_offset 16
 730 02e0 23341100 		sd	ra,8(sp)
 731 02e4 23308100 		sd	s0,0(sp)
 732              		.cfi_offset 1, -8
 733              		.cfi_offset 8, -16
 734 02e8 13040101 		addi	s0,sp,16
 735              		.cfi_def_cfa 8, 0
  65:src/syscall_cpp.cpp **** }
 736              		.loc 2 65 5
GAS LISTING /tmp/ccBi0VtT.s 			page 17


  65:src/syscall_cpp.cpp **** }
 737              		.loc 2 65 20 is_stmt 0
 738 02ec 03358500 		ld	a0,8(a0)
 739              	.LVL47:
 740 02f0 97000000 		call	_Z8sem_waitP15KernelSemaphore@plt
 740      E7800000 
 741              	.LVL48:
  66:src/syscall_cpp.cpp **** 
 742              		.loc 2 66 1
 743 02f8 83308100 		ld	ra,8(sp)
 744              		.cfi_restore 1
 745 02fc 03340100 		ld	s0,0(sp)
 746              		.cfi_restore 8
 747              		.cfi_def_cfa 2, 16
 748 0300 13010101 		addi	sp,sp,16
 749              		.cfi_def_cfa_offset 0
 750 0304 67800000 		jr	ra
 751              		.cfi_endproc
 752              	.LFE31:
 754              		.align	2
 755              		.globl	_ZN9Semaphore6signalEv
 757              	_ZN9Semaphore6signalEv:
 758              	.LFB32:
  68:src/syscall_cpp.cpp ****     return sem_signal(myHandle);
 759              		.loc 2 68 25 is_stmt 1
 760              		.cfi_startproc
 761              	.LVL49:
 762 0308 130101FF 		addi	sp,sp,-16
 763              		.cfi_def_cfa_offset 16
 764 030c 23341100 		sd	ra,8(sp)
 765 0310 23308100 		sd	s0,0(sp)
 766              		.cfi_offset 1, -8
 767              		.cfi_offset 8, -16
 768 0314 13040101 		addi	s0,sp,16
 769              		.cfi_def_cfa 8, 0
  69:src/syscall_cpp.cpp **** }
 770              		.loc 2 69 5
  69:src/syscall_cpp.cpp **** }
 771              		.loc 2 69 22 is_stmt 0
 772 0318 03358500 		ld	a0,8(a0)
 773              	.LVL50:
 774 031c 97000000 		call	_Z10sem_signalP15KernelSemaphore@plt
 774      E7800000 
 775              	.LVL51:
  70:src/syscall_cpp.cpp **** 
 776              		.loc 2 70 1
 777 0324 83308100 		ld	ra,8(sp)
 778              		.cfi_restore 1
 779 0328 03340100 		ld	s0,0(sp)
 780              		.cfi_restore 8
 781              		.cfi_def_cfa 2, 16
 782 032c 13010101 		addi	sp,sp,16
 783              		.cfi_def_cfa_offset 0
 784 0330 67800000 		jr	ra
 785              		.cfi_endproc
 786              	.LFE32:
 788              		.align	2
GAS LISTING /tmp/ccBi0VtT.s 			page 18


 789              		.globl	_ZN14PeriodicThreadC2Em
 791              	_ZN14PeriodicThreadC2Em:
 792              	.LFB34:
  72:src/syscall_cpp.cpp **** }
 793              		.loc 2 72 1 is_stmt 1
 794              		.cfi_startproc
 795              	.LVL52:
 796 0334 130101FE 		addi	sp,sp,-32
 797              		.cfi_def_cfa_offset 32
 798 0338 233C1100 		sd	ra,24(sp)
 799 033c 23388100 		sd	s0,16(sp)
 800 0340 23349100 		sd	s1,8(sp)
 801 0344 23302101 		sd	s2,0(sp)
 802              		.cfi_offset 1, -8
 803              		.cfi_offset 8, -16
 804              		.cfi_offset 9, -24
 805              		.cfi_offset 18, -32
 806 0348 13040102 		addi	s0,sp,32
 807              		.cfi_def_cfa 8, 0
 808 034c 93040500 		mv	s1,a0
 809 0350 13890500 		mv	s2,a1
 810              	.LBB16:
  72:src/syscall_cpp.cpp **** }
 811              		.loc 2 72 111 is_stmt 0
 812 0354 13050001 		li	a0,16
 813              	.LVL53:
 814 0358 97000000 		call	_Znwm
 814      E7800000 
 815              	.LVL54:
 816 0360 13060500 		mv	a2,a0
 817              	.LVL55:
 818              	.LBB17:
 819              	.LBB18:
  59:src/../h/syscall_cpp.hpp **** private:
  60:src/../h/syscall_cpp.hpp **** 
  61:src/../h/syscall_cpp.hpp ****     struct periodic{
  62:src/../h/syscall_cpp.hpp ****         time_t period;
  63:src/../h/syscall_cpp.hpp ****         PeriodicThread * thread;
  64:src/../h/syscall_cpp.hpp ****         periodic(time_t per, PeriodicThread* t) : period(per), thread(t){}
 820              		.loc 1 64 72
 821 0364 23302501 		sd	s2,0(a0)
 822 0368 23349500 		sd	s1,8(a0)
 823              	.LVL56:
 824              	.LBE18:
 825              	.LBE17:
  72:src/syscall_cpp.cpp **** }
 826              		.loc 2 72 113
 827 036c 97050000 		lla	a1,_ZN14PeriodicThread21periodicThreadWrapperEPv
 827      93850500 
 828 0374 13850400 		mv	a0,s1
 829 0378 97000000 		call	_ZN6ThreadC2EPFvPvES0_
 829      E7800000 
 830              	.LVL57:
 831 0380 97070000 		lla	a5,_ZTV14PeriodicThread+16
 831      93870700 
 832 0388 23B0F400 		sd	a5,0(s1)
 833              	.LBE16:
GAS LISTING /tmp/ccBi0VtT.s 			page 19


  73:src/syscall_cpp.cpp **** 
 834              		.loc 2 73 1
 835 038c 83308101 		ld	ra,24(sp)
 836              		.cfi_restore 1
 837 0390 03340101 		ld	s0,16(sp)
 838              		.cfi_restore 8
 839              		.cfi_def_cfa 2, 32
 840 0394 83348100 		ld	s1,8(sp)
 841              		.cfi_restore 9
 842              	.LVL58:
 843 0398 03390100 		ld	s2,0(sp)
 844              		.cfi_restore 18
 845              	.LVL59:
 846 039c 13010102 		addi	sp,sp,32
 847              		.cfi_def_cfa_offset 0
 848 03a0 67800000 		jr	ra
 849              		.cfi_endproc
 850              	.LFE34:
 852              		.globl	_ZN14PeriodicThreadC1Em
 853              		.set	_ZN14PeriodicThreadC1Em,_ZN14PeriodicThreadC2Em
 854              		.align	2
 855              		.globl	_ZN7Console4getcEv
 857              	_ZN7Console4getcEv:
 858              	.LFB37:
  81:src/syscall_cpp.cpp ****     }
  82:src/syscall_cpp.cpp **** }
  83:src/syscall_cpp.cpp **** 
  84:src/syscall_cpp.cpp **** char Console::getc() {
 859              		.loc 2 84 22 is_stmt 1
 860              		.cfi_startproc
 861 03a4 130101FF 		addi	sp,sp,-16
 862              		.cfi_def_cfa_offset 16
 863 03a8 23341100 		sd	ra,8(sp)
 864 03ac 23308100 		sd	s0,0(sp)
 865              		.cfi_offset 1, -8
 866              		.cfi_offset 8, -16
 867 03b0 13040101 		addi	s0,sp,16
 868              		.cfi_def_cfa 8, 0
  85:src/syscall_cpp.cpp ****     return ::getc();
 869              		.loc 2 85 5
 870              		.loc 2 85 18 is_stmt 0
 871 03b4 97000000 		call	_Z4getcv@plt
 871      E7800000 
 872              	.LVL60:
  86:src/syscall_cpp.cpp **** }
 873              		.loc 2 86 1
 874 03bc 83308100 		ld	ra,8(sp)
 875              		.cfi_restore 1
 876 03c0 03340100 		ld	s0,0(sp)
 877              		.cfi_restore 8
 878              		.cfi_def_cfa 2, 16
 879 03c4 13010101 		addi	sp,sp,16
 880              		.cfi_def_cfa_offset 0
 881 03c8 67800000 		jr	ra
 882              		.cfi_endproc
 883              	.LFE37:
 885              		.align	2
GAS LISTING /tmp/ccBi0VtT.s 			page 20


 886              		.globl	_ZN7Console4putcEc
 888              	_ZN7Console4putcEc:
 889              	.LFB38:
  87:src/syscall_cpp.cpp **** 
  88:src/syscall_cpp.cpp **** void Console::putc(char c) {
 890              		.loc 2 88 28 is_stmt 1
 891              		.cfi_startproc
 892              	.LVL61:
 893 03cc 130101FF 		addi	sp,sp,-16
 894              		.cfi_def_cfa_offset 16
 895 03d0 23341100 		sd	ra,8(sp)
 896 03d4 23308100 		sd	s0,0(sp)
 897              		.cfi_offset 1, -8
 898              		.cfi_offset 8, -16
 899 03d8 13040101 		addi	s0,sp,16
 900              		.cfi_def_cfa 8, 0
  89:src/syscall_cpp.cpp ****     ::putc(c);
 901              		.loc 2 89 5
 902              		.loc 2 89 11 is_stmt 0
 903 03dc 97000000 		call	_Z4putcc@plt
 903      E7800000 
 904              	.LVL62:
  90:src/syscall_cpp.cpp **** }
 905              		.loc 2 90 1
 906 03e4 83308100 		ld	ra,8(sp)
 907              		.cfi_restore 1
 908 03e8 03340100 		ld	s0,0(sp)
 909              		.cfi_restore 8
 910              		.cfi_def_cfa 2, 16
 911 03ec 13010101 		addi	sp,sp,16
 912              		.cfi_def_cfa_offset 0
 913 03f0 67800000 		jr	ra
 914              		.cfi_endproc
 915              	.LFE38:
 917              		.weak	_ZTV14PeriodicThread
 918              		.section	.data.rel.ro.local._ZTV14PeriodicThread,"awG",@progbits,_ZTV14PeriodicThread,comdat
 919              		.align	3
 922              	_ZTV14PeriodicThread:
 923 0000 00000000 		.dword	0
 923      00000000 
 924 0008 00000000 		.dword	0
 924      00000000 
 925 0010 00000000 		.dword	_ZN14PeriodicThreadD1Ev
 925      00000000 
 926 0018 00000000 		.dword	_ZN14PeriodicThreadD0Ev
 926      00000000 
 927 0020 00000000 		.dword	_ZN6Thread3runEv
 927      00000000 
 928 0028 00000000 		.dword	_ZN14PeriodicThread18periodicActivationEv
 928      00000000 
 929              		.weak	_ZTV6Thread
 930              		.section	.data.rel.ro.local._ZTV6Thread,"awG",@progbits,_ZTV6Thread,comdat
 931              		.align	3
 934              	_ZTV6Thread:
 935 0000 00000000 		.dword	0
 935      00000000 
 936 0008 00000000 		.dword	0
GAS LISTING /tmp/ccBi0VtT.s 			page 21


 936      00000000 
 937 0010 00000000 		.dword	_ZN6ThreadD1Ev
 937      00000000 
 938 0018 00000000 		.dword	_ZN6ThreadD0Ev
 938      00000000 
 939 0020 00000000 		.dword	_ZN6Thread3runEv
 939      00000000 
 940              		.weak	_ZTV9Semaphore
 941              		.section	.data.rel.ro.local._ZTV9Semaphore,"awG",@progbits,_ZTV9Semaphore,comdat
 942              		.align	3
 945              	_ZTV9Semaphore:
 946 0000 00000000 		.dword	0
 946      00000000 
 947 0008 00000000 		.dword	0
 947      00000000 
 948 0010 00000000 		.dword	_ZN9SemaphoreD1Ev
 948      00000000 
 949 0018 00000000 		.dword	_ZN9SemaphoreD0Ev
 949      00000000 
 950              		.text
 951              	.Letext0:
 952              		.file 3 "src/../h/../lib/hw.h"
 953              		.file 4 "src/../h/KernelThread.hpp"
 954              		.file 5 "src/../h/KernelSemaphore.hpp"
 955              		.file 6 "src/../h/syscall_c.hpp"
 4939              		.align	3
 4942              	DW.ref.__gxx_personality_v0:
 4943 0000 00000000 		.dword	__gxx_personality_v0
 4943      00000000 
 4944              		.ident	"GCC: (Ubuntu 9.4.0-1ubuntu1~20.04) 9.4.0"
 4945              		.section	.note.GNU-stack,"",@progbits
GAS LISTING /tmp/ccBi0VtT.s 			page 22

