GAS LISTING /tmp/ccmZJun0.s 			page 1


   1              		.file	"Timer.cpp"
   2              		.option pic
   3              		.option norelax
   4              		.text
   5              	.Ltext0:
   6              		.align	2
   7              		.globl	_ZN5Timer9addInListEP12KernelThreadm
   9              	_ZN5Timer9addInListEP12KernelThreadm:
  10              	.LFB2:
  11              		.file 1 "src/Timer.cpp"
   1:src/Timer.cpp **** //
   2:src/Timer.cpp **** // Created by os on 6/24/22.
   3:src/Timer.cpp **** //
   4:src/Timer.cpp **** 
   5:src/Timer.cpp **** 
   6:src/Timer.cpp **** #include "../h/Timer.hpp"
   7:src/Timer.cpp **** #include "../test/printing.hpp"
   8:src/Timer.cpp **** 
   9:src/Timer.cpp **** #include "../lib/console.h"
  10:src/Timer.cpp **** Timer::node* Timer::head = nullptr;
  11:src/Timer.cpp **** 
  12:src/Timer.cpp **** int Timer:: addInList(KernelThread *k, uint64 t) {
  12              		.loc 1 12 50
  13              		.cfi_startproc
  14              	.LVL0:
  13:src/Timer.cpp ****     if(t==0)return -1;
  15              		.loc 1 13 5
  16 0000 63880508 		beqz	a1,.L4
  12:src/Timer.cpp ****     if(t==0)return -1;
  17              		.loc 1 12 50 is_stmt 0
  18 0004 130101FE 		addi	sp,sp,-32
  19              		.cfi_def_cfa_offset 32
  20 0008 233C1100 		sd	ra,24(sp)
  21 000c 23388100 		sd	s0,16(sp)
  22 0010 23349100 		sd	s1,8(sp)
  23 0014 23302101 		sd	s2,0(sp)
  24              		.cfi_offset 1, -8
  25              		.cfi_offset 8, -16
  26              		.cfi_offset 9, -24
  27              		.cfi_offset 18, -32
  28 0018 13040102 		addi	s0,sp,32
  29              		.cfi_def_cfa 8, 0
  30 001c 13090500 		mv	s2,a0
  31 0020 93840500 		mv	s1,a1
  14:src/Timer.cpp ****     node* temp;
  32              		.loc 1 14 5 is_stmt 1
  15:src/Timer.cpp ****     size_t size = sizeof(Timer::node);
  33              		.loc 1 15 5
  34              	.LVL1:
  16:src/Timer.cpp ****     size_t sz = MemoryAllocator::roundToNumOfBlocks(size);
  35              		.loc 1 16 5
  36              		.loc 1 16 52 is_stmt 0
  37 0024 13058001 		li	a0,24
  38              	.LVL2:
  39 0028 97000000 		call	_ZN15MemoryAllocator18roundToNumOfBlocksEm@plt
  39      E7800000 
  40              	.LVL3:
GAS LISTING /tmp/ccmZJun0.s 			page 2


  17:src/Timer.cpp **** 
  18:src/Timer.cpp **** 
  19:src/Timer.cpp ****     temp = (node*)MemoryAllocator::malloc(sz);
  41              		.loc 1 19 5 is_stmt 1
  42              		.loc 1 19 42 is_stmt 0
  43 0030 97000000 		call	_ZN15MemoryAllocator6mallocEm@plt
  43      E7800000 
  44              	.LVL4:
  20:src/Timer.cpp ****     if(!temp)return -1;
  45              		.loc 1 20 5 is_stmt 1
  46 0038 63000506 		beqz	a0,.L5
  21:src/Timer.cpp ****     temp->next= nullptr;
  47              		.loc 1 21 5
  48              		.loc 1 21 15 is_stmt 0
  49 003c 23340500 		sd	zero,8(a0)
  22:src/Timer.cpp ****     temp->timeSliceCounter=t;
  50              		.loc 1 22 5 is_stmt 1
  51              		.loc 1 22 27 is_stmt 0
  52 0040 23389500 		sd	s1,16(a0)
  23:src/Timer.cpp ****     temp->info = k;
  53              		.loc 1 23 5 is_stmt 1
  54              		.loc 1 23 16 is_stmt 0
  55 0044 23302501 		sd	s2,0(a0)
  24:src/Timer.cpp ****     if(head==nullptr){
  56              		.loc 1 24 5 is_stmt 1
  57              	.LBB2:
  58              		.loc 1 24 12 is_stmt 0
  59 0048 97070000 		ld	a5,.LANCHOR0
  59      83B70700 
  60              		.loc 1 24 5
  61 0050 63880702 		beqz	a5,.L10
  62              	.L3:
  63              	.LVL5:
  64              	.LBB3:
  25:src/Timer.cpp ****         head = temp;
  26:src/Timer.cpp ****     }
  27:src/Timer.cpp ****     else{
  28:src/Timer.cpp ****         node*tr = head;
  29:src/Timer.cpp ****         while(true){
  65              		.loc 1 29 9 is_stmt 1
  30:src/Timer.cpp ****             if(tr->next==nullptr){
  66              		.loc 1 30 13
  67 0054 13870700 		mv	a4,a5
  68              		.loc 1 30 20 is_stmt 0
  69 0058 83B78700 		ld	a5,8(a5)
  70              	.LVL6:
  71              		.loc 1 30 13
  72 005c E39C07FE 		bnez	a5,.L3
  31:src/Timer.cpp ****                 break;
  32:src/Timer.cpp ****             }
  33:src/Timer.cpp ****             else{
  34:src/Timer.cpp ****                 tr = tr->next;
  35:src/Timer.cpp ****             }
  36:src/Timer.cpp ****         }
  37:src/Timer.cpp ****         tr->next = temp;
  73              		.loc 1 37 9 is_stmt 1
  74              		.loc 1 37 18 is_stmt 0
GAS LISTING /tmp/ccmZJun0.s 			page 3


  75 0060 2334A700 		sd	a0,8(a4)
  76              	.LBE3:
  77              	.LBE2:
  38:src/Timer.cpp ****     }
  39:src/Timer.cpp ****   /*  printString("Scheduler ima: ");
  40:src/Timer.cpp ****     printInt(Scheduler::len());
  41:src/Timer.cpp ****     printString("\nTimer ima: ");
  42:src/Timer.cpp ****     printInt(len());
  43:src/Timer.cpp ****     printString("\n");*/
  44:src/Timer.cpp ****     return 0;
  78              		.loc 1 44 12
  79 0064 13050000 		li	a0,0
  80              	.LVL7:
  81              	.L2:
  45:src/Timer.cpp **** }
  82              		.loc 1 45 1
  83 0068 83308101 		ld	ra,24(sp)
  84              		.cfi_remember_state
  85              		.cfi_restore 1
  86 006c 03340101 		ld	s0,16(sp)
  87              		.cfi_restore 8
  88              		.cfi_def_cfa 2, 32
  89 0070 83348100 		ld	s1,8(sp)
  90              		.cfi_restore 9
  91              	.LVL8:
  92 0074 03390100 		ld	s2,0(sp)
  93              		.cfi_restore 18
  94              	.LVL9:
  95 0078 13010102 		addi	sp,sp,32
  96              		.cfi_def_cfa_offset 0
  97 007c 67800000 		jr	ra
  98              	.LVL10:
  99              	.L10:
 100              		.cfi_restore_state
 101              	.LBB4:
  25:src/Timer.cpp ****     }
 102              		.loc 1 25 9 is_stmt 1
  25:src/Timer.cpp ****     }
 103              		.loc 1 25 14 is_stmt 0
 104 0080 97070000 		sd	a0,.LANCHOR0,a5
 104      23B0A700 
 105              	.LBE4:
  44:src/Timer.cpp **** }
 106              		.loc 1 44 12
 107 0088 13050000 		li	a0,0
 108              	.LVL11:
 109              	.LBB5:
 110 008c 6FF0DFFD 		j	.L2
 111              	.LVL12:
 112              	.L4:
 113              		.cfi_def_cfa_register 2
 114              		.cfi_restore 1
 115              		.cfi_restore 8
 116              		.cfi_restore 9
 117              		.cfi_restore 18
 118              	.LBE5:
  13:src/Timer.cpp ****     node* temp;
GAS LISTING /tmp/ccmZJun0.s 			page 4


 119              		.loc 1 13 21
 120 0090 1305F0FF 		li	a0,-1
 121              	.LVL13:
 122              		.loc 1 45 1
 123 0094 67800000 		ret
 124              	.LVL14:
 125              	.L5:
 126              		.cfi_def_cfa_register 8
 127              		.cfi_offset 1, -8
 128              		.cfi_offset 8, -16
 129              		.cfi_offset 9, -24
 130              		.cfi_offset 18, -32
  20:src/Timer.cpp ****     temp->next= nullptr;
 131              		.loc 1 20 22
 132 0098 1305F0FF 		li	a0,-1
 133              	.LVL15:
 134 009c 6FF0DFFC 		j	.L2
 135              		.cfi_endproc
 136              	.LFE2:
 138              		.align	2
 139              		.globl	_ZN5Timer8checkAllEv
 141              	_ZN5Timer8checkAllEv:
 142              	.LFB4:
  46:src/Timer.cpp **** 
  47:src/Timer.cpp **** 
  48:src/Timer.cpp **** void Timer::updateAll() {
  49:src/Timer.cpp ****     /*printString("Scheduler ima: ");
  50:src/Timer.cpp ****     printInt(Scheduler::len());
  51:src/Timer.cpp ****     printString("\nTimer ima: ");
  52:src/Timer.cpp ****     printInt(len());
  53:src/Timer.cpp ****     printString("\n");*/
  54:src/Timer.cpp ****     //if(head==nullptr){__putc('4');__putc('\n');}
  55:src/Timer.cpp ****     if(head == nullptr){checkAll();return;}
  56:src/Timer.cpp ****     node* temp = head;
  57:src/Timer.cpp ****    // if(head->next==nullptr)__putc('5');
  58:src/Timer.cpp ****     //else if(head->next->next ==nullptr)__putc('6');
  59:src/Timer.cpp ****     //else {
  60:src/Timer.cpp ****     //    __putc('w');
  61:src/Timer.cpp ****     //    __putc('t');
  62:src/Timer.cpp ****     //    __putc('f');
  63:src/Timer.cpp ****     //}
  64:src/Timer.cpp ****     //__putc('\n');
  65:src/Timer.cpp ****     while(true){
  66:src/Timer.cpp ****         if(temp == nullptr){
  67:src/Timer.cpp ****             break;
  68:src/Timer.cpp ****         }
  69:src/Timer.cpp ****         else{
  70:src/Timer.cpp **** 
  71:src/Timer.cpp ****           //  printInt(temp->timeSliceCounter);
  72:src/Timer.cpp ****           // printString("\n");
  73:src/Timer.cpp ****             temp->timeSliceCounter--;
  74:src/Timer.cpp ****             if(temp->timeSliceCounter==0){Scheduler::put(temp->info);}
  75:src/Timer.cpp ****             temp = temp->next;
  76:src/Timer.cpp ****         }
  77:src/Timer.cpp ****     }
  78:src/Timer.cpp ****     checkAll();
  79:src/Timer.cpp **** }
GAS LISTING /tmp/ccmZJun0.s 			page 5


  80:src/Timer.cpp **** 
  81:src/Timer.cpp **** void Timer::checkAll() {
 143              		.loc 1 81 24 is_stmt 1
 144              		.cfi_startproc
  82:src/Timer.cpp ****     node*tr = head;
 145              		.loc 1 82 5
 146              		.loc 1 82 10 is_stmt 0
 147 00a0 17050000 		ld	a0,.LANCHOR0
 147      03350500 
 148              	.LVL16:
 149              	.L18:
  83:src/Timer.cpp ****     while(true){
 150              		.loc 1 83 5 is_stmt 1
  84:src/Timer.cpp **** 
  85:src/Timer.cpp ****         if(tr==nullptr)break;
 151              		.loc 1 85 9
 152              	.LBB6:
 153 00a8 63040504 		beqz	a0,.L19
 154              	.LBE6:
  86:src/Timer.cpp ****         else{
  87:src/Timer.cpp ****             if(tr->timeSliceCounter==0){
 155              		.loc 1 87 13
 156              	.LBB14:
 157              	.LBB7:
 158              		.loc 1 87 20 is_stmt 0
 159 00ac 83370501 		ld	a5,16(a0)
 160              		.loc 1 87 13
 161 00b0 63820704 		beqz	a5,.L23
  88:src/Timer.cpp ****                 if(tr == head){
  89:src/Timer.cpp ****                     head = head->next;
  90:src/Timer.cpp ****                     node* temp =tr;
  91:src/Timer.cpp ****                     tr = tr->next;
  92:src/Timer.cpp ****                     MemoryAllocator::free(temp);
  93:src/Timer.cpp ****                 }
  94:src/Timer.cpp ****                 else{
  95:src/Timer.cpp ****                     node* temp = head;
  96:src/Timer.cpp ****                     while(true){
  97:src/Timer.cpp ****                         if(temp->next==tr)break;
  98:src/Timer.cpp ****                         else temp = temp->next;
  99:src/Timer.cpp ****                     }
 100:src/Timer.cpp ****                     temp->next = tr->next;
 101:src/Timer.cpp ****                     temp = tr;
 102:src/Timer.cpp ****                     tr = tr->next;
 103:src/Timer.cpp ****                     MemoryAllocator::free(temp);
 104:src/Timer.cpp ****                 }
 105:src/Timer.cpp ****             }
 106:src/Timer.cpp ****             else{
 107:src/Timer.cpp ****                 tr = tr->next;
 162              		.loc 1 107 17 is_stmt 1
 163              		.loc 1 107 20 is_stmt 0
 164 00b4 03358500 		ld	a0,8(a0)
 165              	.LVL17:
 166 00b8 6FF01FFF 		j	.L18
 167              	.L24:
 168              		.cfi_def_cfa_register 8
 169              		.cfi_offset 1, -8
 170              		.cfi_offset 8, -16
GAS LISTING /tmp/ccmZJun0.s 			page 6


 171              		.cfi_offset 9, -24
 172              	.LBB8:
 173              	.LBB9:
  89:src/Timer.cpp ****                     node* temp =tr;
 174              		.loc 1 89 21 is_stmt 1
  89:src/Timer.cpp ****                     node* temp =tr;
 175              		.loc 1 89 34 is_stmt 0
 176 00bc 83B78700 		ld	a5,8(a5)
  89:src/Timer.cpp ****                     node* temp =tr;
 177              		.loc 1 89 26
 178 00c0 17070000 		sd	a5,.LANCHOR0,a4
 178      2330F700 
  90:src/Timer.cpp ****                     tr = tr->next;
 179              		.loc 1 90 21 is_stmt 1
 180              	.LVL18:
  91:src/Timer.cpp ****                     MemoryAllocator::free(temp);
 181              		.loc 1 91 21
  91:src/Timer.cpp ****                     MemoryAllocator::free(temp);
 182              		.loc 1 91 24 is_stmt 0
 183 00c8 83348500 		ld	s1,8(a0)
 184              	.LVL19:
  92:src/Timer.cpp ****                 }
 185              		.loc 1 92 21 is_stmt 1
  92:src/Timer.cpp ****                 }
 186              		.loc 1 92 42 is_stmt 0
 187 00cc 97000000 		call	_ZN15MemoryAllocator4freeEPv@plt
 187      E7800000 
 188              	.LVL20:
  91:src/Timer.cpp ****                     MemoryAllocator::free(temp);
 189              		.loc 1 91 24
 190 00d4 13850400 		mv	a0,s1
 191              	.LBE9:
 192 00d8 6F000006 		j	.L12
 193              	.LVL21:
 194              	.L11:
 195              	.LBE8:
 196              	.LBE7:
 197              	.LBE14:
 108:src/Timer.cpp ****             }
 109:src/Timer.cpp ****         }
 110:src/Timer.cpp ****     }
 111:src/Timer.cpp ****    // if(head==nullptr)__putc('7');
 112:src/Timer.cpp ****     //else if(head->next==nullptr)__putc('8');
 113:src/Timer.cpp ****     //else if(head->next->next ==nullptr)__putc('9');
 114:src/Timer.cpp ****     /*
 115:src/Timer.cpp ****     printString("-----\nizbacivanje\nScheduler ima: ");
 116:src/Timer.cpp ****     printInt(Scheduler::len());
 117:src/Timer.cpp ****     printString("\nTimer ima: ");
 118:src/Timer.cpp ****     printInt(len());
 119:src/Timer.cpp ****     printString("\n");*/
 120:src/Timer.cpp **** }
 198              		.loc 1 120 1
 199 00dc 83308101 		ld	ra,24(sp)
 200              		.cfi_restore 1
 201 00e0 03340101 		ld	s0,16(sp)
 202              		.cfi_restore 8
 203              		.cfi_def_cfa 2, 32
GAS LISTING /tmp/ccmZJun0.s 			page 7


 204 00e4 83348100 		ld	s1,8(sp)
 205              		.cfi_restore 9
 206 00e8 13010102 		addi	sp,sp,32
 207              		.cfi_def_cfa_offset 0
 208 00ec 67800000 		jr	ra
 209              	.L19:
 210 00f0 67800000 		ret
 211              	.L23:
  81:src/Timer.cpp ****     node*tr = head;
 212              		.loc 1 81 24
 213 00f4 130101FE 		addi	sp,sp,-32
 214              		.cfi_def_cfa_offset 32
 215 00f8 233C1100 		sd	ra,24(sp)
 216 00fc 23388100 		sd	s0,16(sp)
 217 0100 23349100 		sd	s1,8(sp)
 218              		.cfi_offset 1, -8
 219              		.cfi_offset 8, -16
 220              		.cfi_offset 9, -24
 221 0104 13040102 		addi	s0,sp,32
 222              		.cfi_def_cfa 8, 0
 223              	.L21:
  88:src/Timer.cpp ****                     head = head->next;
 224              		.loc 1 88 17 is_stmt 1
 225              	.LBB15:
 226              	.LBB12:
 227              	.LBB11:
  88:src/Timer.cpp ****                     head = head->next;
 228              		.loc 1 88 23 is_stmt 0
 229 0108 97070000 		ld	a5,.LANCHOR0
 229      83B70700 
  88:src/Timer.cpp ****                     head = head->next;
 230              		.loc 1 88 17
 231 0110 E386A7FA 		beq	a5,a0,.L24
 232              	.L15:
 233              	.LVL22:
 234              	.LBB10:
  96:src/Timer.cpp ****                         if(temp->next==tr)break;
 235              		.loc 1 96 21 is_stmt 1
  97:src/Timer.cpp ****                         else temp = temp->next;
 236              		.loc 1 97 25
 237 0114 13870700 		mv	a4,a5
  97:src/Timer.cpp ****                         else temp = temp->next;
 238              		.loc 1 97 34 is_stmt 0
 239 0118 83B78700 		ld	a5,8(a5)
 240              	.LVL23:
  97:src/Timer.cpp ****                         else temp = temp->next;
 241              		.loc 1 97 25
 242 011c E39CA7FE 		bne	a5,a0,.L15
 100:src/Timer.cpp ****                     temp = tr;
 243              		.loc 1 100 21 is_stmt 1
 100:src/Timer.cpp ****                     temp = tr;
 244              		.loc 1 100 38 is_stmt 0
 245 0120 83378500 		ld	a5,8(a0)
 100:src/Timer.cpp ****                     temp = tr;
 246              		.loc 1 100 32
 247 0124 2334F700 		sd	a5,8(a4)
 101:src/Timer.cpp ****                     tr = tr->next;
GAS LISTING /tmp/ccmZJun0.s 			page 8


 248              		.loc 1 101 21 is_stmt 1
 249              	.LVL24:
 102:src/Timer.cpp ****                     MemoryAllocator::free(temp);
 250              		.loc 1 102 21
 102:src/Timer.cpp ****                     MemoryAllocator::free(temp);
 251              		.loc 1 102 24 is_stmt 0
 252 0128 83348500 		ld	s1,8(a0)
 253              	.LVL25:
 103:src/Timer.cpp ****                 }
 254              		.loc 1 103 21 is_stmt 1
 103:src/Timer.cpp ****                 }
 255              		.loc 1 103 42 is_stmt 0
 256 012c 97000000 		call	_ZN15MemoryAllocator4freeEPv@plt
 256      E7800000 
 257              	.LVL26:
 102:src/Timer.cpp ****                     MemoryAllocator::free(temp);
 258              		.loc 1 102 24
 259 0134 13850400 		mv	a0,s1
 260              	.LVL27:
 261              	.L12:
 262              	.LBE10:
 263              	.LBE11:
 264              	.LBE12:
 265              	.LBE15:
  83:src/Timer.cpp **** 
 266              		.loc 1 83 5 is_stmt 1
  85:src/Timer.cpp ****         else{
 267              		.loc 1 85 9
 268              	.LBB16:
 269 0138 E30205FA 		beqz	a0,.L11
 270              	.LBE16:
  87:src/Timer.cpp ****                 if(tr == head){
 271              		.loc 1 87 13
 272              	.LBB17:
 273              	.LBB13:
  87:src/Timer.cpp ****                 if(tr == head){
 274              		.loc 1 87 20 is_stmt 0
 275 013c 83370501 		ld	a5,16(a0)
  87:src/Timer.cpp ****                 if(tr == head){
 276              		.loc 1 87 13
 277 0140 E38407FC 		beqz	a5,.L21
 107:src/Timer.cpp ****             }
 278              		.loc 1 107 17 is_stmt 1
 107:src/Timer.cpp ****             }
 279              		.loc 1 107 20 is_stmt 0
 280 0144 03358500 		ld	a0,8(a0)
 281              	.LVL28:
 282 0148 6FF01FFF 		j	.L12
 283              	.LBE13:
 284              	.LBE17:
 285              		.cfi_endproc
 286              	.LFE4:
 288              		.align	2
 289              		.globl	_ZN5Timer9updateAllEv
 291              	_ZN5Timer9updateAllEv:
 292              	.LFB3:
  48:src/Timer.cpp ****     /*printString("Scheduler ima: ");
GAS LISTING /tmp/ccmZJun0.s 			page 9


 293              		.loc 1 48 25 is_stmt 1
 294              		.cfi_startproc
 295 014c 130101FE 		addi	sp,sp,-32
 296              		.cfi_def_cfa_offset 32
 297 0150 233C1100 		sd	ra,24(sp)
 298 0154 23388100 		sd	s0,16(sp)
 299 0158 23349100 		sd	s1,8(sp)
 300              		.cfi_offset 1, -8
 301              		.cfi_offset 8, -16
 302              		.cfi_offset 9, -24
 303 015c 13040102 		addi	s0,sp,32
 304              		.cfi_def_cfa 8, 0
  55:src/Timer.cpp ****     node* temp = head;
 305              		.loc 1 55 5
  55:src/Timer.cpp ****     node* temp = head;
 306              		.loc 1 55 13 is_stmt 0
 307 0160 97040000 		ld	s1,.LANCHOR0
 307      83B40400 
  55:src/Timer.cpp ****     node* temp = head;
 308              		.loc 1 55 5
 309 0168 63900402 		bnez	s1,.L26
  55:src/Timer.cpp ****     node* temp = head;
 310              		.loc 1 55 25 is_stmt 1 discriminator 1
  55:src/Timer.cpp ****     node* temp = head;
 311              		.loc 1 55 33 is_stmt 0 discriminator 1
 312 016c 97000000 		call	_ZN5Timer8checkAllEv
 312      E7800000 
 313              	.LVL29:
  55:src/Timer.cpp ****     node* temp = head;
 314              		.loc 1 55 36 is_stmt 1 discriminator 1
 315 0174 6F004003 		j	.L25
 316              	.LVL30:
 317              	.L31:
  74:src/Timer.cpp ****             temp = temp->next;
 318              		.loc 1 74 43 discriminator 1
  74:src/Timer.cpp ****             temp = temp->next;
 319              		.loc 1 74 57 is_stmt 0 discriminator 1
 320 0178 03B50400 		ld	a0,0(s1)
 321 017c 97000000 		call	_ZN9Scheduler3putEP12KernelThread@plt
 321      E7800000 
 322              	.LVL31:
 323              	.L29:
  75:src/Timer.cpp ****         }
 324              		.loc 1 75 13 is_stmt 1
  75:src/Timer.cpp ****         }
 325              		.loc 1 75 18 is_stmt 0
 326 0184 83B48400 		ld	s1,8(s1)
 327              	.LVL32:
  65:src/Timer.cpp ****         if(temp == nullptr){
 328              		.loc 1 65 5 is_stmt 1
 329              	.L26:
  65:src/Timer.cpp ****         if(temp == nullptr){
 330              		.loc 1 65 5
  66:src/Timer.cpp ****             break;
 331              		.loc 1 66 9
 332 0188 638C0400 		beqz	s1,.L28
  73:src/Timer.cpp ****             if(temp->timeSliceCounter==0){Scheduler::put(temp->info);}
GAS LISTING /tmp/ccmZJun0.s 			page 10


 333              		.loc 1 73 13
  73:src/Timer.cpp ****             if(temp->timeSliceCounter==0){Scheduler::put(temp->info);}
 334              		.loc 1 73 19 is_stmt 0
 335 018c 83B70401 		ld	a5,16(s1)
  73:src/Timer.cpp ****             if(temp->timeSliceCounter==0){Scheduler::put(temp->info);}
 336              		.loc 1 73 35
 337 0190 9387F7FF 		addi	a5,a5,-1
 338 0194 23B8F400 		sd	a5,16(s1)
  74:src/Timer.cpp ****             temp = temp->next;
 339              		.loc 1 74 13 is_stmt 1
 340 0198 E39607FE 		bnez	a5,.L29
 341 019c 6FF0DFFD 		j	.L31
 342              	.L28:
  78:src/Timer.cpp **** }
 343              		.loc 1 78 5
  78:src/Timer.cpp **** }
 344              		.loc 1 78 13 is_stmt 0
 345 01a0 97000000 		call	_ZN5Timer8checkAllEv
 345      E7800000 
 346              	.LVL33:
 347              	.L25:
  79:src/Timer.cpp **** 
 348              		.loc 1 79 1
 349 01a8 83308101 		ld	ra,24(sp)
 350              		.cfi_restore 1
 351 01ac 03340101 		ld	s0,16(sp)
 352              		.cfi_restore 8
 353              		.cfi_def_cfa 2, 32
 354 01b0 83348100 		ld	s1,8(sp)
 355              		.cfi_restore 9
 356 01b4 13010102 		addi	sp,sp,32
 357              		.cfi_def_cfa_offset 0
 358 01b8 67800000 		jr	ra
 359              		.cfi_endproc
 360              	.LFE3:
 362              		.globl	_ZN5Timer4headE
 363              		.bss
 364              		.align	3
 365              		.set	.LANCHOR0,. + 0
 368              	_ZN5Timer4headE:
 369 0000 00000000 		.zero	8
 369      00000000 
 370              		.text
 371              	.Letext0:
 372              		.file 2 "src/../h/../lib/hw.h"
 373              		.file 3 "src/../h/../h/MemoryAllocator.hpp"
 374              		.file 4 "src/../h/Scheduler.hpp"
 375              		.file 5 "src/../test/../h/KernelThread.hpp"
 376              		.file 6 "src/../h/Timer.hpp"
 377              		.file 7 "src/../test/../h/syscall_c.hpp"
GAS LISTING /tmp/ccmZJun0.s 			page 11

